(dp0
S'clique_4'
p1
(dp2
S'average_shortest_patlen'
p3
(lp4
F4.028272272272273
asS'square_clustering'
p5
(lp6
c_numpypy.multiarray
scalar
p7
(cnumpypy
dtype
p8
(S'f8'
p9
I0
I1
tp10
Rp11
(I3
S'<'
p12
NNNI-1
I-1
I0
tp13
bS'\xa4\x95:\xddU\xe4S?'
p14
tp15
Rp16
asS'degree_distribution'
p17
(lp18
(lp19
I5
aI5
aI9
aI5
aI3
aI3
aI8
aI8
aI5
aI5
aI11
aI6
aI9
aI6
aI9
aI4
aI2
aI6
aI7
aI5
aI9
aI4
aI2
aI3
aI7
aI5
aI5
aI6
aI5
aI4
aI7
aI7
aI8
aI6
aI7
aI9
aI7
aI4
aI5
aI6
aI6
aI8
aI8
aI3
aI7
aI7
aI3
aI4
aI4
aI5
aI9
aI2
aI7
aI8
aI11
aI5
aI7
aI5
aI6
aI6
aI12
aI5
aI12
aI8
aI2
aI6
aI9
aI3
aI11
aI7
aI3
aI4
aI6
aI3
aI3
aI7
aI5
aI9
aI3
aI12
aI6
aI10
aI4
aI2
aI5
aI7
aI8
aI3
aI8
aI8
aI5
aI3
aI3
aI10
aI7
aI5
aI8
aI6
aI9
aI6
aI2
aI7
aI4
aI6
aI4
aI6
aI5
aI8
aI3
aI3
aI5
aI5
aI8
aI4
aI2
aI7
aI9
aI4
aI6
aI5
aI7
aI3
aI5
aI5
aI8
aI9
aI7
aI5
aI6
aI11
aI5
aI6
aI4
aI5
aI8
aI6
aI8
aI8
aI5
aI5
aI3
aI9
aI6
aI9
aI2
aI6
aI5
aI3
aI6
aI5
aI9
aI3
aI6
aI3
aI9
aI5
aI5
aI6
aI6
aI5
aI5
aI6
aI4
aI2
aI7
aI5
aI10
aI6
aI6
aI10
aI3
aI6
aI7
aI3
aI5
aI5
aI6
aI12
aI5
aI6
aI5
aI9
aI7
aI5
aI6
aI3
aI4
aI7
aI5
aI8
aI8
aI9
aI8
aI6
aI9
aI4
aI5
aI7
aI1
aI10
aI8
aI6
aI4
aI8
aI8
aI11
aI5
aI5
aI11
aI6
aI7
aI3
aI5
aI8
aI4
aI10
aI3
aI11
aI5
aI6
aI8
aI3
aI13
aI6
aI8
aI8
aI7
aI4
aI6
aI6
aI6
aI6
aI4
aI8
aI6
aI8
aI6
aI3
aI7
aI7
aI5
aI4
aI8
aI6
aI8
aI8
aI6
aI7
aI11
aI4
aI4
aI6
aI3
aI9
aI6
aI4
aI3
aI8
aI4
aI4
aI6
aI5
aI10
aI5
aI7
aI5
aI7
aI7
aI2
aI6
aI8
aI7
aI4
aI5
aI6
aI6
aI8
aI7
aI10
aI3
aI7
aI8
aI4
aI8
aI5
aI7
aI3
aI10
aI4
aI3
aI10
aI8
aI11
aI9
aI4
aI6
aI6
aI7
aI5
aI6
aI5
aI10
aI3
aI4
aI12
aI3
aI11
aI6
aI8
aI5
aI4
aI8
aI5
aI8
aI4
aI4
aI4
aI8
aI7
aI3
aI11
aI1
aI4
aI3
aI9
aI4
aI4
aI5
aI3
aI7
aI8
aI6
aI7
aI8
aI5
aI8
aI3
aI5
aI5
aI5
aI8
aI4
aI5
aI1
aI9
aI5
aI6
aI6
aI6
aI9
aI6
aI8
aI11
aI8
aI11
aI5
aI6
aI4
aI5
aI3
aI5
aI4
aI8
aI6
aI7
aI12
aI7
aI6
aI5
aI7
aI3
aI6
aI8
aI2
aI10
aI1
aI8
aI5
aI4
aI6
aI6
aI4
aI2
aI5
aI9
aI8
aI4
aI9
aI2
aI4
aI8
aI6
aI3
aI6
aI6
aI8
aI4
aI7
aI7
aI9
aI7
aI7
aI3
aI7
aI10
aI2
aI6
aI7
aI4
aI3
aI6
aI3
aI6
aI6
aI7
aI11
aI7
aI13
aI4
aI13
aI7
aI8
aI7
aI8
aI9
aI12
aI5
aI2
aI8
aI8
aI8
aI5
aI6
aI7
aI4
aI7
aI9
aI4
aI5
aI8
aI8
aI8
aI3
aI5
aI9
aI4
aI7
aI5
aI6
aI7
aI10
aI6
aI11
aI7
aI9
aI10
aI9
aI9
aI4
aI7
aI6
aI7
aI3
aI7
aI6
aI6
aI6
aI1
aI10
aI7
aI6
aI4
aI6
aI5
aI5
aI7
aI7
aI5
aI4
aI5
aI4
aI8
aI5
aI6
aI2
aI12
aI8
aI8
aI4
aI7
aI6
aI7
aI6
aI9
aI6
aI4
aI9
aI7
aI5
aI4
aI6
aI11
aI11
aI6
aI2
aI8
aI2
aI6
aI5
aI4
aI5
aI5
aI8
aI8
aI4
aI7
aI8
aI10
aI8
aI4
aI7
aI3
aI5
aI3
aI6
aI8
aI9
aI4
aI8
aI10
aI8
aI8
aI5
aI10
aI5
aI6
aI5
aI6
aI2
aI2
aI5
aI8
aI6
aI10
aI6
aI2
aI5
aI7
aI7
aI5
aI5
aI4
aI5
aI8
aI5
aI6
aI6
aI6
aI8
aI6
aI3
aI6
aI5
aI8
aI6
aI6
aI4
aI8
aI8
aI3
aI6
aI8
aI7
aI3
aI6
aI9
aI2
aI6
aI7
aI7
aI8
aI8
aI4
aI6
aI5
aI4
aI5
aI5
aI5
aI5
aI2
aI4
aI8
aI10
aI7
aI7
aI6
aI10
aI4
aI9
aI3
aI7
aI4
aI5
aI4
aI9
aI4
aI8
aI5
aI4
aI9
aI11
aI11
aI7
aI4
aI5
aI4
aI2
aI5
aI6
aI10
aI6
aI5
aI4
aI7
aI9
aI4
aI5
aI3
aI2
aI6
aI7
aI3
aI7
aI9
aI2
aI3
aI7
aI8
aI6
aI4
aI2
aI3
aI4
aI2
aI9
aI3
aI3
aI8
aI3
aI10
aI3
aI7
aI4
aI5
aI10
aI8
aI4
aI7
aI6
aI3
aI8
aI8
aI6
aI5
aI2
aI4
aI10
aI4
aI3
aI5
aI6
aI4
aI4
aI4
aI8
aI4
aI6
aI6
aI11
aI3
aI6
aI4
aI3
aI5
aI10
aI2
aI7
aI5
aI1
aI10
aI4
aI7
aI2
aI8
aI7
aI7
aI6
aI7
aI10
aI7
aI5
aI5
aI4
aI2
aI8
aI1
aI7
aI2
aI7
aI7
aI3
aI4
aI4
aI8
aI7
aI9
aI1
aI7
aI13
aI2
aI5
aI6
aI7
aI1
aI12
aI5
aI9
aI8
aI7
aI5
aI6
aI5
aI7
aI9
aI6
aI5
aI3
aI6
aI9
aI1
aI8
aI3
aI9
aI6
aI5
aI9
aI5
aI8
aI5
aI7
aI9
aI10
aI6
aI5
aI9
aI5
aI7
aI6
aI7
aI3
aI9
aI5
aI8
aI5
aI9
aI7
aI11
aI7
aI6
aI4
aI5
aI3
aI7
aI10
aI8
aI10
aI5
aI6
aI9
aI5
aI6
aI3
aI8
aI6
aI9
aI3
aI10
aI2
aI4
aI3
aI3
aI5
aI4
aI2
aI6
aI6
aI5
aI8
aI5
aI3
aI10
aI8
aI5
aI2
aI4
aI7
aI1
aI6
aI5
aI5
aI8
aI9
aI4
aI9
aI4
aI5
aI8
aI5
aI6
aI7
aI6
aI7
aI5
aI6
aI4
aI3
aI5
aI5
aI6
aI7
aI8
aI5
aI7
aI6
aI6
aI8
aI7
aI4
aI12
aI5
aI12
aI9
aI9
aI8
aI3
aI5
aI2
aI13
aI8
aI11
aI7
aI6
aI10
aI9
aI2
aI6
aI5
aI12
aI8
aI7
aI7
aI10
aI4
aI7
aI4
aI6
aI6
aI9
aI7
aI3
aI9
aI3
aI5
aI5
aI7
aI9
aI7
aI6
aI10
aI10
aI6
aI9
aI9
aI3
aI12
aI5
aI5
aI4
aI8
aI4
aI5
aI11
aI4
aI5
aI5
aI7
aI4
aI9
aI6
aI3
aI5
aI7
aI4
aI4
aI6
aI8
aI4
aI11
aI2
aI6
aI4
aI5
aI7
aI7
aI7
aI8
aI2
aI3
aI6
aI3
aI6
aI4
aI11
aI7
aI4
aI7
aI9
aI5
aI6
aI6
aI5
aI7
aI10
aI7
aI1
aI2
aI9
aI6
aI9
aI5
aI5
aI1
aI7
aI6
aI8
aI3
aI7
aI7
aI4
aI7
aI9
aI3
aI7
aI6
aI5
aI3
aI4
aI7
aI3
aI4
aI7
aI7
aI9
aI6
aI6
aI11
aI6
aI6
aI5
aI6
aI11
aI3
aI4
aI10
aI3
aI9
aI8
aI4
aI9
aI7
aI8
aI6
aI6
aI9
aI8
aI7
aI2
aI8
aI6
aI6
aI1
aI5
aI3
aI8
aI5
aI9
aI9
aI13
aI6
aasS'triangular_clustering'
p20
(lp21
g7
(g11
S'\xe2\xa7I\xfe\xfcr|?'
p22
tp23
Rp24
asS'number_of_cliques'
p25
(lp26
I0
assS'clique_5'
p27
(dp28
g3
(lp29
F4.019691691691691
asg5
(lp30
g7
(g11
S'\xfad\x9d\xa7c\x04O?'
p31
tp32
Rp33
asg17
(lp34
(lp35
I5
aI5
aI9
aI5
aI3
aI3
aI8
aI8
aI5
aI5
aI11
aI6
aI9
aI5
aI9
aI4
aI2
aI6
aI7
aI5
aI9
aI4
aI2
aI3
aI7
aI5
aI5
aI6
aI5
aI4
aI7
aI7
aI8
aI6
aI7
aI9
aI7
aI4
aI5
aI6
aI6
aI8
aI8
aI3
aI7
aI7
aI3
aI4
aI4
aI5
aI9
aI2
aI7
aI8
aI11
aI5
aI7
aI5
aI6
aI6
aI12
aI5
aI12
aI8
aI2
aI6
aI9
aI3
aI11
aI7
aI3
aI4
aI6
aI3
aI3
aI7
aI5
aI9
aI3
aI12
aI6
aI10
aI4
aI2
aI5
aI7
aI8
aI3
aI8
aI7
aI5
aI3
aI3
aI10
aI7
aI5
aI8
aI6
aI9
aI6
aI2
aI7
aI4
aI6
aI4
aI6
aI5
aI8
aI3
aI3
aI5
aI6
aI8
aI4
aI2
aI7
aI9
aI4
aI6
aI5
aI7
aI3
aI5
aI5
aI8
aI9
aI7
aI5
aI6
aI11
aI5
aI6
aI4
aI5
aI7
aI6
aI8
aI8
aI5
aI5
aI3
aI9
aI6
aI9
aI2
aI6
aI5
aI3
aI6
aI5
aI9
aI3
aI6
aI3
aI9
aI5
aI5
aI6
aI6
aI5
aI5
aI6
aI4
aI2
aI7
aI5
aI10
aI6
aI6
aI10
aI3
aI6
aI7
aI3
aI5
aI5
aI6
aI12
aI5
aI6
aI6
aI10
aI7
aI5
aI6
aI3
aI4
aI7
aI5
aI8
aI8
aI9
aI8
aI6
aI9
aI4
aI5
aI7
aI1
aI10
aI8
aI6
aI4
aI7
aI8
aI11
aI5
aI5
aI11
aI6
aI7
aI3
aI5
aI7
aI4
aI10
aI4
aI11
aI5
aI6
aI8
aI3
aI13
aI6
aI8
aI8
aI7
aI4
aI6
aI6
aI6
aI6
aI4
aI8
aI6
aI8
aI6
aI3
aI7
aI7
aI5
aI4
aI8
aI6
aI8
aI8
aI6
aI7
aI11
aI4
aI4
aI6
aI3
aI9
aI6
aI4
aI3
aI8
aI6
aI4
aI6
aI5
aI10
aI5
aI7
aI5
aI7
aI7
aI2
aI6
aI8
aI7
aI4
aI5
aI6
aI6
aI8
aI7
aI10
aI3
aI7
aI8
aI4
aI8
aI5
aI7
aI3
aI10
aI4
aI3
aI10
aI8
aI11
aI9
aI4
aI6
aI6
aI7
aI5
aI6
aI5
aI10
aI3
aI4
aI12
aI3
aI11
aI6
aI8
aI5
aI4
aI8
aI5
aI8
aI4
aI4
aI4
aI6
aI7
aI3
aI11
aI1
aI4
aI3
aI9
aI4
aI4
aI5
aI3
aI7
aI8
aI6
aI7
aI8
aI5
aI8
aI3
aI5
aI5
aI5
aI8
aI4
aI5
aI1
aI9
aI5
aI6
aI6
aI6
aI9
aI6
aI8
aI11
aI8
aI11
aI5
aI6
aI4
aI5
aI3
aI5
aI4
aI8
aI7
aI7
aI12
aI7
aI6
aI5
aI7
aI3
aI6
aI8
aI2
aI10
aI1
aI9
aI5
aI4
aI6
aI6
aI4
aI2
aI5
aI9
aI8
aI4
aI9
aI2
aI4
aI8
aI6
aI3
aI6
aI5
aI8
aI4
aI7
aI7
aI9
aI7
aI7
aI3
aI7
aI10
aI2
aI6
aI7
aI4
aI4
aI6
aI3
aI6
aI6
aI7
aI11
aI7
aI13
aI4
aI13
aI7
aI8
aI7
aI8
aI9
aI12
aI5
aI2
aI9
aI9
aI8
aI5
aI6
aI7
aI4
aI7
aI9
aI4
aI5
aI8
aI8
aI8
aI3
aI5
aI9
aI4
aI7
aI5
aI6
aI7
aI11
aI6
aI11
aI7
aI9
aI10
aI9
aI9
aI4
aI7
aI6
aI6
aI3
aI7
aI6
aI5
aI6
aI1
aI10
aI7
aI6
aI4
aI6
aI5
aI5
aI7
aI7
aI5
aI4
aI5
aI4
aI8
aI5
aI6
aI2
aI11
aI8
aI8
aI4
aI7
aI6
aI7
aI6
aI9
aI6
aI4
aI8
aI7
aI5
aI4
aI6
aI11
aI11
aI6
aI2
aI8
aI2
aI6
aI5
aI4
aI5
aI5
aI8
aI8
aI4
aI7
aI7
aI10
aI8
aI4
aI7
aI3
aI5
aI3
aI6
aI8
aI9
aI4
aI8
aI10
aI8
aI8
aI5
aI10
aI5
aI6
aI5
aI6
aI2
aI2
aI5
aI8
aI6
aI10
aI6
aI2
aI5
aI7
aI7
aI5
aI5
aI4
aI5
aI8
aI5
aI6
aI6
aI6
aI8
aI6
aI3
aI6
aI5
aI8
aI6
aI6
aI4
aI8
aI8
aI3
aI6
aI8
aI7
aI3
aI6
aI9
aI2
aI6
aI7
aI7
aI8
aI8
aI4
aI6
aI5
aI4
aI5
aI5
aI5
aI5
aI2
aI4
aI8
aI10
aI7
aI7
aI6
aI10
aI4
aI9
aI3
aI7
aI4
aI6
aI4
aI9
aI4
aI8
aI5
aI4
aI9
aI11
aI11
aI7
aI4
aI5
aI4
aI2
aI5
aI6
aI10
aI6
aI5
aI4
aI7
aI10
aI4
aI5
aI3
aI2
aI6
aI7
aI3
aI7
aI9
aI2
aI3
aI7
aI8
aI6
aI4
aI2
aI3
aI4
aI2
aI9
aI3
aI3
aI8
aI3
aI10
aI3
aI7
aI4
aI5
aI10
aI8
aI4
aI7
aI7
aI3
aI8
aI8
aI6
aI5
aI2
aI4
aI10
aI4
aI3
aI5
aI6
aI4
aI4
aI4
aI8
aI4
aI6
aI6
aI11
aI3
aI6
aI4
aI3
aI5
aI10
aI2
aI7
aI5
aI1
aI10
aI4
aI7
aI2
aI8
aI7
aI7
aI6
aI7
aI10
aI7
aI5
aI5
aI4
aI2
aI8
aI1
aI7
aI2
aI7
aI7
aI3
aI4
aI4
aI8
aI7
aI9
aI1
aI7
aI12
aI2
aI5
aI6
aI7
aI1
aI12
aI5
aI9
aI8
aI7
aI5
aI6
aI5
aI7
aI9
aI6
aI5
aI3
aI7
aI9
aI1
aI8
aI3
aI9
aI6
aI5
aI9
aI5
aI8
aI5
aI7
aI9
aI10
aI6
aI5
aI9
aI5
aI7
aI6
aI7
aI4
aI9
aI5
aI8
aI5
aI9
aI7
aI11
aI7
aI6
aI4
aI5
aI3
aI7
aI10
aI8
aI10
aI5
aI6
aI9
aI5
aI8
aI3
aI8
aI6
aI9
aI4
aI10
aI2
aI4
aI3
aI3
aI5
aI4
aI2
aI6
aI6
aI5
aI8
aI5
aI3
aI10
aI8
aI5
aI2
aI4
aI7
aI1
aI6
aI5
aI5
aI8
aI9
aI4
aI9
aI4
aI5
aI8
aI5
aI6
aI7
aI6
aI7
aI5
aI6
aI4
aI3
aI5
aI5
aI6
aI7
aI8
aI5
aI7
aI6
aI6
aI8
aI7
aI4
aI12
aI5
aI12
aI9
aI9
aI8
aI3
aI5
aI2
aI11
aI8
aI11
aI7
aI6
aI10
aI9
aI2
aI7
aI5
aI12
aI8
aI7
aI7
aI10
aI4
aI7
aI4
aI6
aI6
aI9
aI7
aI3
aI9
aI3
aI5
aI5
aI7
aI9
aI7
aI6
aI10
aI10
aI4
aI9
aI9
aI3
aI12
aI5
aI5
aI4
aI8
aI4
aI5
aI11
aI4
aI5
aI5
aI7
aI4
aI9
aI7
aI3
aI5
aI7
aI4
aI4
aI7
aI8
aI4
aI11
aI2
aI6
aI4
aI5
aI7
aI7
aI8
aI8
aI2
aI3
aI6
aI3
aI6
aI4
aI12
aI6
aI4
aI7
aI9
aI5
aI6
aI6
aI5
aI7
aI10
aI7
aI1
aI2
aI9
aI6
aI10
aI5
aI5
aI1
aI7
aI6
aI8
aI3
aI7
aI7
aI4
aI7
aI9
aI3
aI7
aI6
aI5
aI3
aI4
aI7
aI3
aI4
aI7
aI7
aI9
aI6
aI6
aI11
aI6
aI6
aI5
aI6
aI11
aI3
aI4
aI10
aI3
aI9
aI8
aI4
aI9
aI7
aI7
aI6
aI6
aI9
aI8
aI7
aI2
aI8
aI6
aI6
aI1
aI5
aI3
aI8
aI5
aI11
aI9
aI13
aI6
aasg20
(lp36
g7
(g11
S'\xa7|\xf1\x86\xa4\x07~?'
p37
tp38
Rp39
asg25
(lp40
I0
assS'clique_6'
p41
(dp42
g3
(lp43
F4.033651651651652
asg5
(lp44
g7
(g11
S'\xb2\xa8\x13\x1d\xde\x18S?'
p45
tp46
Rp47
asg17
(lp48
(lp49
I5
aI5
aI9
aI5
aI3
aI3
aI8
aI8
aI5
aI5
aI11
aI6
aI9
aI6
aI9
aI4
aI2
aI6
aI7
aI5
aI9
aI4
aI2
aI3
aI7
aI5
aI5
aI6
aI5
aI4
aI7
aI7
aI8
aI6
aI7
aI9
aI7
aI4
aI5
aI6
aI6
aI8
aI8
aI3
aI7
aI7
aI3
aI4
aI4
aI5
aI9
aI2
aI7
aI8
aI11
aI5
aI7
aI5
aI6
aI6
aI12
aI5
aI12
aI8
aI2
aI6
aI9
aI3
aI11
aI7
aI3
aI4
aI6
aI3
aI3
aI7
aI5
aI9
aI3
aI12
aI6
aI10
aI4
aI2
aI5
aI7
aI8
aI3
aI8
aI8
aI5
aI3
aI3
aI9
aI7
aI5
aI8
aI6
aI9
aI6
aI2
aI7
aI4
aI5
aI4
aI6
aI5
aI8
aI3
aI3
aI5
aI6
aI8
aI4
aI2
aI7
aI9
aI4
aI6
aI5
aI7
aI3
aI5
aI5
aI8
aI9
aI7
aI5
aI6
aI11
aI5
aI6
aI4
aI5
aI8
aI6
aI8
aI8
aI5
aI5
aI3
aI9
aI6
aI9
aI2
aI6
aI5
aI3
aI6
aI5
aI9
aI3
aI6
aI3
aI9
aI5
aI5
aI6
aI6
aI5
aI5
aI6
aI4
aI2
aI7
aI5
aI10
aI6
aI6
aI10
aI3
aI6
aI7
aI3
aI5
aI5
aI6
aI12
aI5
aI6
aI6
aI10
aI7
aI5
aI6
aI3
aI4
aI7
aI5
aI8
aI8
aI9
aI8
aI6
aI9
aI4
aI5
aI7
aI1
aI10
aI8
aI6
aI4
aI8
aI8
aI11
aI5
aI5
aI11
aI6
aI7
aI3
aI5
aI8
aI4
aI10
aI4
aI11
aI5
aI6
aI8
aI3
aI13
aI6
aI8
aI8
aI7
aI4
aI6
aI6
aI6
aI6
aI4
aI8
aI6
aI8
aI6
aI3
aI7
aI7
aI5
aI4
aI8
aI6
aI8
aI8
aI6
aI7
aI11
aI4
aI4
aI6
aI3
aI9
aI6
aI4
aI3
aI8
aI6
aI4
aI6
aI5
aI10
aI5
aI7
aI5
aI7
aI7
aI2
aI6
aI8
aI7
aI4
aI5
aI6
aI6
aI8
aI7
aI10
aI3
aI7
aI8
aI4
aI8
aI5
aI7
aI3
aI10
aI4
aI3
aI9
aI6
aI10
aI9
aI4
aI6
aI6
aI7
aI5
aI6
aI5
aI10
aI3
aI4
aI12
aI3
aI11
aI6
aI8
aI5
aI4
aI8
aI5
aI8
aI4
aI4
aI4
aI8
aI7
aI3
aI11
aI1
aI4
aI3
aI9
aI4
aI4
aI5
aI3
aI7
aI7
aI6
aI7
aI8
aI5
aI8
aI3
aI5
aI5
aI5
aI8
aI4
aI5
aI1
aI9
aI5
aI6
aI6
aI6
aI9
aI6
aI8
aI11
aI8
aI11
aI5
aI6
aI4
aI5
aI3
aI5
aI4
aI8
aI7
aI7
aI12
aI7
aI6
aI5
aI7
aI3
aI6
aI8
aI2
aI10
aI1
aI9
aI5
aI4
aI6
aI6
aI4
aI2
aI5
aI9
aI8
aI4
aI9
aI2
aI4
aI8
aI6
aI3
aI6
aI6
aI8
aI4
aI7
aI7
aI9
aI7
aI7
aI3
aI7
aI10
aI2
aI6
aI7
aI4
aI4
aI6
aI3
aI6
aI6
aI7
aI11
aI7
aI13
aI4
aI13
aI7
aI8
aI7
aI8
aI9
aI12
aI5
aI2
aI9
aI9
aI8
aI5
aI6
aI7
aI4
aI7
aI9
aI4
aI5
aI8
aI8
aI8
aI3
aI5
aI9
aI4
aI7
aI5
aI6
aI7
aI11
aI6
aI11
aI7
aI9
aI10
aI9
aI9
aI4
aI7
aI6
aI7
aI3
aI7
aI6
aI6
aI6
aI1
aI10
aI7
aI6
aI4
aI6
aI5
aI5
aI7
aI7
aI5
aI4
aI5
aI4
aI8
aI5
aI6
aI2
aI12
aI7
aI8
aI4
aI7
aI6
aI7
aI6
aI9
aI6
aI4
aI9
aI7
aI5
aI4
aI6
aI11
aI11
aI6
aI2
aI8
aI2
aI6
aI5
aI4
aI5
aI5
aI8
aI8
aI4
aI7
aI8
aI10
aI7
aI4
aI7
aI3
aI5
aI3
aI6
aI8
aI9
aI4
aI8
aI10
aI8
aI8
aI5
aI10
aI5
aI6
aI5
aI6
aI2
aI2
aI5
aI8
aI6
aI10
aI6
aI2
aI5
aI7
aI7
aI5
aI5
aI4
aI5
aI8
aI5
aI6
aI6
aI6
aI8
aI6
aI3
aI6
aI5
aI8
aI6
aI6
aI4
aI8
aI8
aI3
aI6
aI8
aI7
aI3
aI4
aI9
aI2
aI6
aI7
aI7
aI8
aI8
aI4
aI6
aI5
aI4
aI5
aI5
aI5
aI5
aI2
aI4
aI8
aI10
aI7
aI7
aI6
aI10
aI4
aI9
aI3
aI7
aI4
aI6
aI4
aI9
aI4
aI8
aI5
aI4
aI9
aI11
aI11
aI7
aI4
aI5
aI4
aI2
aI5
aI6
aI10
aI6
aI5
aI4
aI7
aI10
aI4
aI5
aI3
aI2
aI6
aI7
aI3
aI7
aI8
aI2
aI3
aI7
aI7
aI6
aI4
aI2
aI3
aI4
aI2
aI9
aI3
aI3
aI8
aI3
aI10
aI3
aI7
aI4
aI5
aI10
aI8
aI4
aI7
aI7
aI3
aI8
aI8
aI6
aI5
aI2
aI4
aI10
aI4
aI3
aI5
aI6
aI4
aI4
aI4
aI8
aI4
aI6
aI6
aI11
aI3
aI6
aI4
aI3
aI5
aI10
aI2
aI7
aI5
aI1
aI10
aI4
aI7
aI2
aI8
aI7
aI7
aI6
aI7
aI10
aI7
aI5
aI5
aI4
aI2
aI8
aI1
aI7
aI2
aI7
aI7
aI3
aI4
aI4
aI8
aI7
aI9
aI1
aI7
aI13
aI2
aI5
aI5
aI7
aI1
aI11
aI5
aI9
aI8
aI7
aI5
aI6
aI5
aI7
aI9
aI6
aI5
aI3
aI7
aI9
aI1
aI8
aI3
aI8
aI6
aI5
aI9
aI5
aI8
aI5
aI7
aI9
aI10
aI6
aI5
aI9
aI5
aI7
aI6
aI7
aI4
aI9
aI5
aI8
aI5
aI9
aI7
aI11
aI7
aI6
aI4
aI5
aI3
aI7
aI10
aI8
aI10
aI5
aI6
aI9
aI5
aI8
aI3
aI8
aI6
aI9
aI4
aI8
aI2
aI4
aI3
aI3
aI5
aI4
aI2
aI6
aI6
aI5
aI6
aI5
aI3
aI10
aI8
aI5
aI2
aI4
aI7
aI1
aI6
aI5
aI5
aI8
aI9
aI4
aI9
aI4
aI5
aI8
aI5
aI6
aI7
aI6
aI7
aI5
aI6
aI4
aI3
aI5
aI5
aI6
aI7
aI8
aI5
aI6
aI6
aI6
aI8
aI7
aI4
aI12
aI5
aI12
aI9
aI9
aI8
aI3
aI5
aI2
aI13
aI8
aI11
aI7
aI6
aI10
aI9
aI2
aI7
aI5
aI12
aI8
aI7
aI7
aI10
aI4
aI7
aI4
aI6
aI6
aI9
aI7
aI3
aI9
aI3
aI5
aI5
aI7
aI9
aI7
aI6
aI10
aI10
aI6
aI9
aI9
aI3
aI12
aI5
aI5
aI4
aI8
aI4
aI5
aI11
aI4
aI5
aI5
aI7
aI4
aI9
aI7
aI3
aI5
aI7
aI4
aI4
aI7
aI8
aI4
aI11
aI2
aI6
aI4
aI5
aI7
aI7
aI8
aI8
aI2
aI3
aI6
aI3
aI6
aI4
aI12
aI7
aI4
aI7
aI9
aI5
aI6
aI6
aI5
aI7
aI10
aI7
aI1
aI2
aI9
aI6
aI10
aI5
aI5
aI1
aI7
aI6
aI8
aI3
aI7
aI7
aI4
aI7
aI9
aI3
aI7
aI6
aI5
aI3
aI4
aI7
aI3
aI4
aI7
aI7
aI9
aI6
aI6
aI11
aI6
aI6
aI5
aI6
aI10
aI3
aI4
aI10
aI3
aI9
aI8
aI4
aI9
aI7
aI8
aI6
aI6
aI9
aI8
aI7
aI2
aI8
aI6
aI6
aI1
aI5
aI3
aI8
aI5
aI11
aI9
aI13
aI6
aasg20
(lp50
g7
(g11
S'\xad\xc1ZB\xed\x04u?'
p51
tp52
Rp53
asg25
(lp54
I0
assS'square'
p55
(dp56
g3
(lp57
F4.0268188188188185
asg5
(lp58
g7
(g11
S'JN\xab\x89\xb38P?'
p59
tp60
Rp61
asg17
(lp62
(lp63
I5
aI5
aI9
aI5
aI3
aI3
aI8
aI8
aI5
aI5
aI11
aI6
aI9
aI6
aI9
aI4
aI2
aI6
aI7
aI5
aI9
aI4
aI2
aI3
aI7
aI5
aI5
aI6
aI5
aI4
aI7
aI7
aI8
aI6
aI7
aI9
aI7
aI4
aI5
aI6
aI6
aI8
aI8
aI3
aI7
aI7
aI3
aI4
aI4
aI5
aI9
aI2
aI7
aI8
aI11
aI5
aI7
aI5
aI6
aI6
aI12
aI5
aI12
aI8
aI2
aI6
aI9
aI3
aI10
aI7
aI3
aI4
aI6
aI3
aI3
aI7
aI5
aI9
aI3
aI12
aI6
aI10
aI4
aI2
aI5
aI7
aI8
aI3
aI8
aI8
aI5
aI3
aI3
aI10
aI7
aI5
aI8
aI6
aI9
aI6
aI2
aI7
aI4
aI6
aI4
aI6
aI5
aI8
aI3
aI3
aI5
aI6
aI8
aI4
aI2
aI7
aI9
aI4
aI6
aI5
aI7
aI3
aI5
aI5
aI8
aI9
aI7
aI5
aI6
aI11
aI5
aI6
aI4
aI5
aI8
aI6
aI8
aI8
aI5
aI5
aI3
aI9
aI6
aI9
aI2
aI6
aI5
aI3
aI6
aI5
aI9
aI3
aI6
aI3
aI9
aI5
aI5
aI6
aI6
aI5
aI5
aI6
aI4
aI2
aI6
aI5
aI10
aI6
aI6
aI10
aI3
aI6
aI7
aI3
aI5
aI5
aI6
aI12
aI5
aI6
aI6
aI10
aI7
aI5
aI6
aI3
aI4
aI7
aI5
aI8
aI8
aI9
aI8
aI6
aI9
aI4
aI5
aI7
aI1
aI10
aI8
aI6
aI4
aI8
aI8
aI11
aI5
aI5
aI11
aI6
aI7
aI3
aI5
aI8
aI4
aI10
aI4
aI9
aI5
aI6
aI8
aI3
aI13
aI6
aI8
aI7
aI7
aI4
aI6
aI6
aI6
aI6
aI4
aI8
aI6
aI8
aI6
aI3
aI7
aI7
aI5
aI4
aI8
aI6
aI8
aI8
aI6
aI7
aI11
aI4
aI4
aI6
aI3
aI9
aI6
aI4
aI3
aI8
aI6
aI4
aI6
aI5
aI9
aI5
aI7
aI5
aI7
aI7
aI2
aI6
aI8
aI7
aI4
aI5
aI6
aI6
aI8
aI7
aI10
aI3
aI7
aI8
aI4
aI8
aI5
aI7
aI3
aI10
aI4
aI3
aI10
aI8
aI11
aI9
aI4
aI6
aI6
aI7
aI5
aI6
aI5
aI10
aI3
aI4
aI12
aI3
aI11
aI6
aI8
aI5
aI4
aI8
aI5
aI8
aI4
aI4
aI4
aI8
aI7
aI3
aI11
aI1
aI4
aI3
aI9
aI4
aI4
aI5
aI3
aI7
aI8
aI6
aI7
aI8
aI5
aI8
aI3
aI5
aI5
aI5
aI8
aI4
aI5
aI1
aI9
aI5
aI6
aI6
aI6
aI9
aI6
aI8
aI11
aI8
aI11
aI5
aI6
aI4
aI5
aI3
aI5
aI4
aI8
aI7
aI7
aI12
aI7
aI6
aI5
aI7
aI3
aI6
aI8
aI2
aI10
aI1
aI9
aI5
aI4
aI6
aI6
aI4
aI2
aI5
aI9
aI8
aI4
aI9
aI2
aI4
aI8
aI6
aI3
aI6
aI6
aI8
aI4
aI7
aI7
aI9
aI7
aI7
aI3
aI7
aI10
aI2
aI6
aI7
aI4
aI4
aI6
aI3
aI6
aI6
aI7
aI11
aI7
aI13
aI4
aI13
aI7
aI8
aI7
aI7
aI9
aI12
aI5
aI2
aI9
aI9
aI8
aI5
aI6
aI7
aI4
aI7
aI9
aI4
aI5
aI8
aI8
aI8
aI3
aI5
aI9
aI4
aI7
aI5
aI6
aI7
aI11
aI6
aI11
aI7
aI9
aI10
aI9
aI9
aI4
aI7
aI6
aI7
aI3
aI7
aI6
aI6
aI6
aI1
aI10
aI7
aI6
aI3
aI6
aI5
aI5
aI7
aI7
aI5
aI4
aI5
aI4
aI8
aI5
aI6
aI2
aI11
aI8
aI8
aI4
aI7
aI6
aI6
aI6
aI9
aI6
aI4
aI9
aI7
aI5
aI4
aI6
aI11
aI11
aI6
aI2
aI8
aI2
aI6
aI5
aI4
aI5
aI5
aI8
aI8
aI4
aI7
aI8
aI10
aI8
aI4
aI7
aI3
aI5
aI3
aI6
aI8
aI9
aI4
aI8
aI10
aI8
aI8
aI5
aI10
aI5
aI6
aI5
aI6
aI2
aI2
aI5
aI8
aI6
aI10
aI6
aI2
aI5
aI7
aI7
aI5
aI5
aI4
aI5
aI8
aI5
aI6
aI6
aI6
aI8
aI6
aI3
aI6
aI5
aI8
aI6
aI6
aI4
aI8
aI8
aI3
aI6
aI8
aI7
aI3
aI6
aI9
aI2
aI6
aI7
aI7
aI8
aI8
aI4
aI6
aI5
aI4
aI5
aI5
aI5
aI5
aI2
aI4
aI8
aI10
aI7
aI7
aI6
aI9
aI3
aI9
aI3
aI7
aI4
aI6
aI4
aI8
aI4
aI8
aI5
aI4
aI9
aI11
aI10
aI7
aI4
aI5
aI4
aI2
aI5
aI6
aI10
aI6
aI4
aI4
aI7
aI10
aI4
aI5
aI3
aI2
aI6
aI7
aI3
aI7
aI9
aI2
aI3
aI7
aI8
aI6
aI4
aI2
aI3
aI4
aI2
aI9
aI3
aI3
aI8
aI3
aI10
aI3
aI7
aI4
aI5
aI10
aI8
aI4
aI7
aI7
aI3
aI8
aI7
aI6
aI5
aI2
aI4
aI10
aI4
aI3
aI5
aI6
aI4
aI4
aI4
aI8
aI4
aI6
aI6
aI11
aI3
aI5
aI4
aI3
aI5
aI10
aI2
aI7
aI5
aI1
aI10
aI4
aI7
aI2
aI8
aI7
aI7
aI6
aI7
aI10
aI7
aI5
aI5
aI4
aI2
aI8
aI1
aI7
aI2
aI7
aI7
aI3
aI4
aI4
aI8
aI7
aI9
aI1
aI7
aI13
aI2
aI5
aI6
aI7
aI1
aI12
aI5
aI9
aI8
aI7
aI5
aI6
aI5
aI7
aI9
aI6
aI5
aI3
aI7
aI9
aI1
aI8
aI3
aI9
aI6
aI5
aI9
aI5
aI8
aI5
aI7
aI9
aI10
aI6
aI5
aI9
aI5
aI7
aI6
aI7
aI4
aI9
aI5
aI8
aI5
aI9
aI7
aI11
aI7
aI6
aI4
aI5
aI3
aI7
aI10
aI8
aI10
aI5
aI6
aI9
aI5
aI8
aI3
aI8
aI6
aI9
aI4
aI10
aI2
aI4
aI3
aI3
aI5
aI4
aI2
aI6
aI6
aI5
aI8
aI5
aI3
aI10
aI8
aI5
aI2
aI4
aI7
aI1
aI6
aI5
aI5
aI8
aI9
aI4
aI9
aI3
aI5
aI8
aI5
aI6
aI7
aI6
aI7
aI5
aI6
aI4
aI3
aI5
aI5
aI6
aI7
aI8
aI5
aI7
aI6
aI6
aI8
aI7
aI4
aI12
aI5
aI12
aI9
aI9
aI8
aI3
aI5
aI2
aI13
aI8
aI11
aI7
aI6
aI10
aI9
aI2
aI7
aI5
aI12
aI8
aI7
aI7
aI10
aI4
aI7
aI4
aI6
aI6
aI9
aI7
aI3
aI9
aI3
aI5
aI5
aI7
aI9
aI7
aI6
aI10
aI10
aI6
aI9
aI9
aI3
aI12
aI5
aI5
aI4
aI8
aI4
aI5
aI11
aI4
aI5
aI5
aI7
aI4
aI9
aI7
aI3
aI5
aI7
aI4
aI4
aI7
aI8
aI4
aI11
aI2
aI6
aI4
aI5
aI7
aI7
aI8
aI8
aI2
aI3
aI6
aI3
aI6
aI4
aI12
aI7
aI4
aI6
aI9
aI5
aI6
aI6
aI5
aI7
aI10
aI7
aI1
aI2
aI9
aI6
aI10
aI5
aI5
aI1
aI7
aI6
aI8
aI3
aI7
aI7
aI4
aI7
aI9
aI3
aI7
aI6
aI5
aI3
aI4
aI7
aI3
aI4
aI7
aI7
aI9
aI6
aI6
aI11
aI6
aI6
aI5
aI6
aI11
aI3
aI4
aI10
aI3
aI9
aI8
aI4
aI9
aI7
aI8
aI6
aI6
aI9
aI8
aI7
aI2
aI8
aI6
aI6
aI1
aI5
aI3
aI8
aI5
aI11
aI9
aI12
aI6
aasg20
(lp64
g7
(g11
S'\xfd\xb9\x13\xea\xaabr?'
p65
tp66
Rp67
asg25
(lp68
I0
assS'triangle'
p69
(dp70
g3
(lp71
F4.023407407407407
asg5
(lp72
g7
(g11
S'\xb9\xa3\x1a\x03VDP?'
p73
tp74
Rp75
asg17
(lp76
(lp77
I5
aI5
aI9
aI5
aI3
aI3
aI8
aI8
aI5
aI5
aI11
aI6
aI9
aI6
aI9
aI4
aI2
aI6
aI7
aI5
aI9
aI4
aI2
aI3
aI7
aI5
aI5
aI6
aI5
aI4
aI7
aI7
aI8
aI6
aI7
aI9
aI7
aI4
aI5
aI6
aI6
aI8
aI8
aI3
aI7
aI7
aI3
aI4
aI4
aI5
aI9
aI2
aI7
aI8
aI11
aI5
aI7
aI5
aI6
aI6
aI12
aI5
aI12
aI8
aI2
aI6
aI9
aI3
aI11
aI7
aI3
aI4
aI6
aI3
aI3
aI7
aI5
aI9
aI3
aI12
aI6
aI10
aI4
aI2
aI5
aI6
aI8
aI3
aI8
aI8
aI5
aI3
aI3
aI10
aI7
aI5
aI8
aI6
aI9
aI6
aI2
aI7
aI4
aI6
aI4
aI6
aI5
aI8
aI3
aI3
aI5
aI6
aI8
aI4
aI2
aI6
aI9
aI4
aI6
aI5
aI7
aI3
aI5
aI5
aI8
aI8
aI7
aI5
aI6
aI11
aI5
aI6
aI4
aI5
aI8
aI6
aI8
aI8
aI5
aI5
aI3
aI9
aI6
aI9
aI2
aI6
aI5
aI3
aI6
aI5
aI9
aI3
aI6
aI3
aI9
aI5
aI5
aI6
aI6
aI5
aI5
aI6
aI4
aI2
aI7
aI5
aI10
aI6
aI6
aI10
aI3
aI6
aI7
aI3
aI5
aI5
aI6
aI12
aI5
aI6
aI6
aI10
aI7
aI5
aI6
aI3
aI4
aI7
aI5
aI8
aI8
aI9
aI7
aI6
aI9
aI4
aI5
aI7
aI1
aI10
aI8
aI6
aI4
aI8
aI8
aI11
aI5
aI5
aI11
aI6
aI7
aI3
aI5
aI8
aI4
aI10
aI4
aI11
aI5
aI6
aI8
aI3
aI13
aI6
aI8
aI8
aI7
aI4
aI6
aI6
aI6
aI6
aI4
aI8
aI6
aI8
aI6
aI3
aI7
aI7
aI5
aI4
aI8
aI6
aI7
aI8
aI6
aI7
aI11
aI4
aI4
aI6
aI3
aI9
aI6
aI4
aI3
aI8
aI6
aI4
aI6
aI5
aI10
aI5
aI7
aI5
aI7
aI7
aI2
aI6
aI8
aI7
aI4
aI5
aI6
aI6
aI8
aI7
aI10
aI3
aI7
aI8
aI4
aI8
aI5
aI7
aI3
aI10
aI4
aI3
aI10
aI8
aI11
aI9
aI4
aI6
aI6
aI7
aI5
aI6
aI5
aI10
aI3
aI4
aI12
aI3
aI11
aI6
aI8
aI5
aI4
aI8
aI5
aI8
aI4
aI4
aI4
aI8
aI7
aI3
aI11
aI1
aI4
aI3
aI9
aI4
aI4
aI5
aI3
aI7
aI8
aI6
aI7
aI8
aI5
aI8
aI3
aI5
aI5
aI5
aI7
aI4
aI5
aI1
aI9
aI5
aI6
aI6
aI6
aI7
aI6
aI8
aI11
aI8
aI11
aI5
aI6
aI4
aI5
aI3
aI5
aI4
aI8
aI7
aI7
aI12
aI7
aI6
aI5
aI7
aI3
aI6
aI8
aI2
aI10
aI1
aI9
aI5
aI4
aI6
aI6
aI4
aI2
aI5
aI9
aI8
aI4
aI9
aI2
aI4
aI8
aI6
aI3
aI6
aI6
aI8
aI4
aI7
aI7
aI9
aI7
aI7
aI3
aI7
aI10
aI2
aI6
aI7
aI4
aI4
aI6
aI3
aI6
aI6
aI7
aI11
aI6
aI13
aI4
aI13
aI7
aI8
aI7
aI8
aI9
aI12
aI5
aI2
aI9
aI9
aI8
aI5
aI6
aI6
aI4
aI7
aI9
aI4
aI5
aI8
aI8
aI8
aI3
aI5
aI9
aI4
aI7
aI5
aI6
aI7
aI11
aI6
aI11
aI7
aI9
aI10
aI9
aI9
aI4
aI7
aI6
aI7
aI3
aI7
aI6
aI6
aI6
aI1
aI10
aI7
aI6
aI4
aI6
aI5
aI5
aI7
aI7
aI5
aI4
aI5
aI4
aI8
aI5
aI5
aI2
aI12
aI8
aI8
aI4
aI7
aI6
aI7
aI6
aI9
aI6
aI4
aI9
aI7
aI5
aI4
aI6
aI11
aI11
aI6
aI2
aI8
aI2
aI6
aI5
aI4
aI5
aI5
aI8
aI8
aI4
aI7
aI8
aI10
aI8
aI4
aI7
aI3
aI5
aI3
aI6
aI8
aI9
aI4
aI8
aI10
aI8
aI8
aI5
aI9
aI5
aI6
aI5
aI6
aI2
aI2
aI5
aI8
aI6
aI10
aI6
aI2
aI5
aI7
aI7
aI5
aI5
aI4
aI5
aI8
aI5
aI6
aI6
aI6
aI8
aI6
aI3
aI6
aI5
aI8
aI6
aI6
aI4
aI8
aI8
aI3
aI6
aI8
aI7
aI3
aI6
aI9
aI2
aI6
aI7
aI7
aI8
aI8
aI4
aI6
aI5
aI4
aI5
aI5
aI5
aI5
aI2
aI4
aI8
aI10
aI7
aI7
aI6
aI10
aI4
aI9
aI3
aI6
aI4
aI6
aI4
aI9
aI4
aI8
aI5
aI4
aI9
aI11
aI11
aI7
aI4
aI5
aI4
aI2
aI5
aI6
aI10
aI6
aI5
aI4
aI7
aI10
aI4
aI5
aI3
aI2
aI6
aI7
aI3
aI7
aI9
aI2
aI3
aI7
aI8
aI6
aI4
aI2
aI3
aI4
aI2
aI9
aI3
aI3
aI8
aI3
aI10
aI3
aI7
aI4
aI5
aI10
aI8
aI4
aI7
aI7
aI3
aI8
aI8
aI6
aI5
aI2
aI4
aI10
aI4
aI3
aI5
aI6
aI4
aI4
aI4
aI8
aI4
aI6
aI6
aI11
aI3
aI6
aI4
aI3
aI5
aI10
aI2
aI7
aI5
aI1
aI10
aI4
aI7
aI2
aI8
aI7
aI7
aI6
aI7
aI10
aI7
aI5
aI5
aI4
aI2
aI8
aI1
aI6
aI2
aI7
aI7
aI3
aI4
aI4
aI8
aI7
aI9
aI1
aI7
aI12
aI2
aI5
aI6
aI7
aI1
aI12
aI5
aI8
aI8
aI7
aI5
aI6
aI5
aI7
aI9
aI6
aI5
aI3
aI7
aI9
aI1
aI8
aI3
aI9
aI6
aI5
aI9
aI5
aI8
aI5
aI5
aI9
aI10
aI6
aI5
aI9
aI5
aI7
aI6
aI7
aI4
aI9
aI5
aI8
aI5
aI9
aI7
aI11
aI7
aI6
aI3
aI5
aI3
aI7
aI10
aI8
aI10
aI5
aI6
aI9
aI5
aI8
aI3
aI8
aI6
aI9
aI4
aI10
aI2
aI4
aI3
aI3
aI5
aI4
aI2
aI6
aI6
aI5
aI8
aI5
aI3
aI10
aI6
aI5
aI2
aI4
aI7
aI1
aI6
aI5
aI5
aI8
aI9
aI4
aI9
aI4
aI5
aI8
aI5
aI6
aI7
aI6
aI7
aI5
aI6
aI4
aI3
aI5
aI5
aI6
aI7
aI7
aI5
aI7
aI6
aI6
aI7
aI7
aI4
aI12
aI5
aI12
aI9
aI9
aI8
aI3
aI5
aI2
aI13
aI8
aI11
aI7
aI6
aI10
aI9
aI2
aI7
aI5
aI12
aI8
aI7
aI7
aI10
aI4
aI7
aI4
aI5
aI6
aI9
aI7
aI3
aI9
aI3
aI5
aI5
aI7
aI9
aI7
aI6
aI10
aI10
aI6
aI9
aI9
aI3
aI12
aI5
aI4
aI4
aI8
aI4
aI5
aI11
aI4
aI5
aI5
aI7
aI4
aI9
aI7
aI3
aI5
aI7
aI4
aI4
aI7
aI8
aI4
aI11
aI2
aI6
aI4
aI5
aI7
aI7
aI7
aI8
aI2
aI3
aI6
aI3
aI6
aI4
aI12
aI7
aI4
aI7
aI9
aI5
aI6
aI6
aI5
aI7
aI10
aI7
aI1
aI2
aI9
aI6
aI10
aI5
aI5
aI1
aI7
aI6
aI8
aI3
aI7
aI7
aI4
aI7
aI9
aI3
aI7
aI6
aI5
aI3
aI4
aI7
aI3
aI4
aI7
aI7
aI9
aI6
aI6
aI11
aI6
aI6
aI5
aI6
aI11
aI3
aI4
aI10
aI3
aI9
aI8
aI4
aI9
aI6
aI7
aI6
aI6
aI9
aI8
aI7
aI2
aI8
aI6
aI6
aI1
aI5
aI3
aI8
aI5
aI11
aI9
aI13
aI6
aasg20
(lp78
g7
(g11
S'\xee\xd6\x80m\\.r?'
p79
tp80
Rp81
asg25
(lp82
I0
ass.