(dp0
S'average_shortest_patlen'
p1
(lp2
F4.072344430527657
aF4.073375757114291
aF4.082233762016076
aF4.0878927038073805
aF4.092025567107839
aF4.105292584024397
aF4.108419446332362
aF4.112761563966123
aF4.123270367636194
aF4.132262211721895
aF4.136582540447635
aF4.1471302951143825
aF4.155737897897897
aF4.164586564224581
aF4.169582425290117
aF4.180519999553085
aF4.188617797687295
aF4.191793573766127
aF4.200503665583198
aF4.207447098093366
aF4.218997965498826
aF4.228558142951444
aF4.235066084592381
aF4.243427757062615
aF4.261193064511115
aF4.27114499400599
aF4.2687763121591775
aF4.282698250587246
aF4.2947800602741015
aF4.303528828032601
aF4.315868320537726
aF4.328456709945001
aF4.339277756012102
aF4.349814856204717
aF4.360160479737079
aF4.380043038233185
aF4.380643039905533
aF4.394737361964954
aF4.413141542920312
aF4.416553885951448
aF4.431021695757564
aF4.449504290470776
aF4.459727634704424
aF4.474148084255307
aF4.4878702121682865
aF4.505812998670353
aF4.534781419434899
aF4.540458942695572
aF4.547770629895936
aF4.573786546855843
aF4.590920439276294
asS'number_of_cliques'
p3
(lp4
F0.0
aF8.62
aF17.33
aF24.9
aF33.86
aF42.02
aF49.89
aF58.77
aF67.46
aF75.73
aF83.32
aF91.53
aF99.95
aF107.62
aF116.59
aF124.31
aF133.17
aF140.95
aF149.57
aF158.32
aF166.1
aF175.14
aF183.52
aF191.78
aF199.13
aF206.89
aF216.7
aF224.11
aF233.66
aF242.24
aF248.39
aF256.71
aF266.99
aF274.79
aF282.86
aF290.94
aF299.44
aF307.22
aF316.53
aF324.04
aF332.6
aF341.03
aF350.28
aF357.66
aF365.56
aF374.18
aF380.1
aF389.49
aF400.01
aF407.62
aF415.56
asS'triangle_clustering'
p5
(lp6
F0.006011957552681233
aF0.013160075378869493
aF0.02077884205990087
aF0.027051941761970396
aF0.03531392776229621
aF0.04247359337068165
aF0.04938277673968623
aF0.05673660222792352
aF0.06379577170876949
aF0.0716213235245148
aF0.0783733239869007
aF0.08485548208946202
aF0.09191506151021331
aF0.10000862934476946
aF0.10752054786613457
aF0.11353773641210871
aF0.12067693142409709
aF0.1284127051379993
aF0.1351131264624608
aF0.14222043135493678
aF0.15021702674449738
aF0.1573472074561146
aF0.16454668310327436
aF0.17171708504060443
aF0.1785571484615316
aF0.18539691790768578
aF0.19360568142083248
aF0.20028295872075977
aF0.20874785299401316
aF0.2147968669372424
aF0.22166058319106077
aF0.22851970579446365
aF0.2381148583410914
aF0.24431068351565902
aF0.2509268338386761
aF0.2586618615936869
aF0.26508500145786457
aF0.27258338632257006
aF0.28118733096152243
aF0.2860617934238965
aF0.29396806350830135
aF0.30202307709275616
aF0.30908629503150825
aF0.3162674749335635
aF0.3221373099350771
aF0.3292592140037469
aF0.33707513871903844
aF0.3427831412041693
aF0.3519483349962732
aF0.35808768016460674
aF0.3651112693650521
as.