(dp0
S'clique_4'
p1
(dp2
S'average_shortest_patlen'
p3
(lp4
F4.0456576576576575
asS'square_clustering'
p5
(lp6
F0.0010864226587448075
asS'degree_distribution'
p7
(lp8
(lp9
I2
aI5
aI5
aI5
aI9
aI4
aI8
aI7
aI10
aI1
aI6
aI6
aI9
aI7
aI6
aI4
aI7
aI3
aI5
aI5
aI6
aI9
aI5
aI4
aI4
aI3
aI5
aI6
aI6
aI11
aI4
aI8
aI6
aI8
aI5
aI3
aI3
aI4
aI4
aI2
aI6
aI5
aI4
aI5
aI10
aI3
aI4
aI4
aI4
aI4
aI11
aI5
aI8
aI7
aI3
aI3
aI3
aI4
aI3
aI2
aI7
aI7
aI4
aI4
aI5
aI5
aI8
aI5
aI3
aI6
aI5
aI4
aI5
aI6
aI4
aI8
aI5
aI11
aI7
aI9
aI5
aI7
aI3
aI9
aI3
aI8
aI3
aI5
aI9
aI4
aI3
aI6
aI3
aI11
aI8
aI5
aI7
aI8
aI7
aI6
aI4
aI6
aI4
aI10
aI4
aI5
aI1
aI4
aI7
aI5
aI1
aI7
aI10
aI8
aI5
aI14
aI9
aI4
aI7
aI7
aI5
aI4
aI3
aI5
aI8
aI7
aI4
aI6
aI4
aI10
aI11
aI7
aI6
aI9
aI7
aI9
aI4
aI5
aI4
aI7
aI7
aI8
aI7
aI6
aI7
aI5
aI10
aI12
aI5
aI10
aI6
aI6
aI8
aI3
aI8
aI6
aI6
aI6
aI5
aI7
aI4
aI3
aI3
aI3
aI7
aI4
aI5
aI7
aI5
aI9
aI7
aI12
aI5
aI5
aI3
aI1
aI3
aI1
aI5
aI13
aI9
aI7
aI8
aI4
aI7
aI10
aI4
aI6
aI8
aI10
aI5
aI5
aI4
aI5
aI8
aI2
aI8
aI15
aI6
aI6
aI9
aI5
aI10
aI8
aI4
aI4
aI9
aI7
aI5
aI6
aI6
aI2
aI6
aI5
aI9
aI9
aI13
aI1
aI7
aI5
aI7
aI6
aI12
aI6
aI4
aI7
aI4
aI5
aI8
aI7
aI5
aI2
aI4
aI11
aI7
aI7
aI5
aI8
aI3
aI5
aI7
aI8
aI11
aI3
aI13
aI6
aI9
aI6
aI6
aI3
aI3
aI5
aI10
aI6
aI2
aI8
aI5
aI6
aI9
aI10
aI4
aI7
aI9
aI8
aI6
aI6
aI8
aI5
aI12
aI6
aI6
aI10
aI4
aI6
aI4
aI4
aI7
aI5
aI7
aI6
aI6
aI5
aI5
aI6
aI3
aI7
aI6
aI3
aI9
aI9
aI6
aI3
aI3
aI6
aI6
aI5
aI3
aI11
aI10
aI4
aI7
aI2
aI5
aI5
aI6
aI4
aI4
aI5
aI4
aI6
aI3
aI8
aI9
aI6
aI7
aI4
aI5
aI6
aI7
aI7
aI3
aI7
aI2
aI6
aI6
aI4
aI9
aI5
aI5
aI7
aI6
aI1
aI10
aI6
aI3
aI12
aI8
aI10
aI7
aI9
aI8
aI7
aI4
aI7
aI7
aI5
aI5
aI6
aI7
aI3
aI3
aI9
aI11
aI6
aI2
aI4
aI4
aI8
aI3
aI3
aI8
aI7
aI5
aI6
aI4
aI5
aI2
aI4
aI7
aI4
aI7
aI2
aI7
aI3
aI8
aI10
aI5
aI8
aI5
aI6
aI7
aI7
aI4
aI8
aI10
aI1
aI2
aI7
aI6
aI4
aI5
aI6
aI7
aI3
aI10
aI9
aI13
aI3
aI9
aI5
aI6
aI10
aI5
aI7
aI6
aI5
aI7
aI6
aI6
aI11
aI5
aI8
aI5
aI5
aI5
aI3
aI7
aI5
aI3
aI7
aI1
aI3
aI3
aI10
aI4
aI3
aI8
aI7
aI10
aI7
aI3
aI6
aI4
aI4
aI6
aI6
aI6
aI5
aI8
aI8
aI5
aI6
aI6
aI3
aI4
aI6
aI6
aI9
aI4
aI7
aI6
aI2
aI8
aI7
aI4
aI6
aI4
aI1
aI4
aI7
aI7
aI4
aI2
aI4
aI7
aI2
aI8
aI5
aI5
aI6
aI3
aI3
aI1
aI9
aI9
aI5
aI11
aI3
aI10
aI9
aI8
aI2
aI10
aI4
aI10
aI5
aI8
aI6
aI6
aI10
aI8
aI6
aI2
aI4
aI7
aI6
aI3
aI5
aI8
aI7
aI2
aI4
aI5
aI5
aI4
aI2
aI10
aI11
aI7
aI7
aI7
aI4
aI4
aI4
aI4
aI7
aI10
aI8
aI4
aI6
aI3
aI6
aI5
aI12
aI5
aI4
aI7
aI7
aI8
aI6
aI10
aI11
aI7
aI7
aI6
aI12
aI1
aI9
aI6
aI5
aI1
aI7
aI4
aI5
aI8
aI3
aI6
aI4
aI7
aI5
aI6
aI7
aI6
aI2
aI5
aI4
aI12
aI10
aI6
aI5
aI4
aI3
aI7
aI4
aI8
aI7
aI5
aI6
aI5
aI4
aI9
aI8
aI3
aI6
aI5
aI7
aI10
aI7
aI10
aI5
aI8
aI8
aI7
aI4
aI7
aI4
aI7
aI5
aI4
aI9
aI3
aI3
aI5
aI9
aI2
aI5
aI10
aI3
aI2
aI9
aI3
aI10
aI4
aI5
aI7
aI8
aI6
aI5
aI5
aI5
aI5
aI7
aI4
aI6
aI8
aI4
aI2
aI6
aI7
aI4
aI5
aI4
aI7
aI5
aI5
aI7
aI10
aI10
aI7
aI4
aI7
aI9
aI7
aI5
aI13
aI4
aI9
aI8
aI7
aI9
aI6
aI8
aI12
aI6
aI1
aI7
aI8
aI4
aI5
aI8
aI13
aI4
aI8
aI6
aI6
aI4
aI6
aI3
aI6
aI9
aI7
aI2
aI4
aI8
aI7
aI6
aI9
aI4
aI5
aI5
aI5
aI9
aI9
aI5
aI5
aI6
aI10
aI7
aI5
aI9
aI11
aI3
aI10
aI8
aI6
aI10
aI8
aI8
aI5
aI2
aI4
aI2
aI2
aI8
aI6
aI6
aI8
aI6
aI5
aI4
aI5
aI7
aI4
aI6
aI5
aI4
aI7
aI4
aI8
aI4
aI7
aI7
aI2
aI4
aI2
aI5
aI6
aI1
aI6
aI2
aI9
aI4
aI6
aI10
aI7
aI2
aI11
aI6
aI5
aI5
aI7
aI4
aI7
aI7
aI8
aI6
aI6
aI6
aI9
aI5
aI7
aI6
aI5
aI8
aI2
aI8
aI9
aI3
aI5
aI5
aI3
aI8
aI5
aI7
aI7
aI7
aI6
aI2
aI5
aI6
aI4
aI4
aI8
aI9
aI10
aI2
aI5
aI5
aI6
aI8
aI5
aI5
aI8
aI4
aI5
aI7
aI6
aI12
aI7
aI3
aI7
aI3
aI10
aI7
aI10
aI3
aI7
aI3
aI5
aI8
aI4
aI7
aI5
aI8
aI3
aI5
aI11
aI5
aI5
aI8
aI12
aI4
aI5
aI4
aI9
aI6
aI14
aI6
aI7
aI5
aI7
aI7
aI8
aI11
aI9
aI10
aI8
aI6
aI9
aI7
aI5
aI7
aI10
aI5
aI11
aI6
aI7
aI4
aI6
aI12
aI6
aI7
aI10
aI7
aI4
aI9
aI7
aI8
aI7
aI4
aI5
aI3
aI8
aI6
aI5
aI5
aI7
aI4
aI4
aI2
aI7
aI9
aI8
aI6
aI8
aI3
aI3
aI7
aI9
aI6
aI4
aI4
aI6
aI6
aI5
aI5
aI6
aI5
aI4
aI8
aI5
aI6
aI4
aI8
aI2
aI6
aI3
aI5
aI11
aI6
aI10
aI3
aI8
aI4
aI4
aI2
aI5
aI7
aI7
aI2
aI2
aI9
aI9
aI6
aI6
aI8
aI5
aI7
aI7
aI3
aI7
aI3
aI6
aI11
aI7
aI8
aI6
aI2
aI4
aI3
aI6
aI2
aI11
aI8
aI2
aI3
aI2
aI5
aI9
aI4
aI3
aI6
aI5
aI5
aI8
aI8
aI2
aI2
aI7
aI5
aI3
aI5
aI6
aI8
aI4
aI1
aI6
aI5
aI4
aI5
aI10
aI6
aI5
aI5
aI7
aI8
aI8
aI10
aI1
aI4
aI13
aI7
aI4
aI7
aI3
aI9
aI6
aI5
aI8
aI4
aI9
aI9
aI3
aI5
aI6
aI9
aI10
aI3
aI12
aI5
aI3
aI7
aI6
aI8
aI4
aI5
aI5
aI7
aI10
aI6
aI3
aI1
aI5
aI14
aI4
aI8
aI6
aI9
aI6
aI5
aI8
aI8
aI8
aI5
aI11
aI7
aI8
aI3
aI6
aI9
aasS'triangular_clustering'
p10
(lp11
F0.005408447108447103
asS'number_of_cliques'
p12
(lp13
I0
assS'clique_5'
p14
(dp15
g3
(lp16
F4.0428988988988985
asg5
(lp17
F0.0009538079196297972
asg7
(lp18
(lp19
I2
aI5
aI5
aI5
aI9
aI4
aI8
aI7
aI10
aI1
aI6
aI6
aI9
aI7
aI6
aI4
aI7
aI3
aI5
aI5
aI6
aI9
aI5
aI4
aI4
aI3
aI5
aI6
aI6
aI10
aI4
aI8
aI6
aI8
aI5
aI3
aI3
aI4
aI4
aI2
aI6
aI5
aI4
aI5
aI10
aI3
aI4
aI4
aI4
aI4
aI11
aI5
aI8
aI7
aI4
aI3
aI3
aI4
aI3
aI2
aI7
aI7
aI4
aI4
aI5
aI5
aI8
aI5
aI3
aI6
aI5
aI4
aI5
aI6
aI4
aI8
aI5
aI12
aI7
aI9
aI5
aI7
aI3
aI9
aI3
aI8
aI3
aI5
aI9
aI4
aI3
aI6
aI3
aI11
aI8
aI5
aI7
aI8
aI7
aI6
aI4
aI6
aI4
aI10
aI4
aI5
aI1
aI4
aI9
aI5
aI1
aI7
aI10
aI8
aI5
aI13
aI9
aI4
aI6
aI7
aI5
aI4
aI3
aI5
aI8
aI7
aI4
aI6
aI4
aI10
aI11
aI7
aI6
aI9
aI7
aI9
aI4
aI5
aI5
aI7
aI7
aI8
aI7
aI6
aI7
aI5
aI10
aI12
aI5
aI10
aI6
aI6
aI8
aI3
aI8
aI6
aI6
aI6
aI5
aI7
aI4
aI3
aI3
aI3
aI7
aI4
aI5
aI7
aI5
aI9
aI7
aI12
aI5
aI5
aI3
aI1
aI3
aI1
aI5
aI13
aI9
aI7
aI8
aI4
aI7
aI10
aI5
aI6
aI8
aI10
aI5
aI5
aI4
aI5
aI8
aI2
aI8
aI15
aI6
aI6
aI9
aI5
aI11
aI8
aI4
aI4
aI9
aI6
aI5
aI6
aI6
aI2
aI6
aI5
aI9
aI9
aI13
aI1
aI7
aI5
aI7
aI6
aI12
aI6
aI4
aI6
aI4
aI5
aI8
aI7
aI5
aI2
aI4
aI11
aI7
aI7
aI5
aI8
aI3
aI5
aI7
aI8
aI11
aI3
aI13
aI6
aI9
aI6
aI6
aI3
aI3
aI5
aI10
aI6
aI2
aI8
aI5
aI6
aI9
aI10
aI4
aI7
aI9
aI8
aI6
aI6
aI8
aI5
aI11
aI6
aI6
aI10
aI4
aI6
aI4
aI4
aI7
aI5
aI7
aI6
aI6
aI5
aI5
aI6
aI3
aI7
aI6
aI3
aI9
aI9
aI6
aI3
aI3
aI6
aI6
aI5
aI3
aI11
aI10
aI4
aI7
aI2
aI5
aI5
aI6
aI4
aI4
aI7
aI4
aI6
aI3
aI8
aI9
aI6
aI7
aI5
aI5
aI6
aI7
aI7
aI3
aI7
aI2
aI6
aI7
aI4
aI9
aI5
aI5
aI7
aI6
aI1
aI10
aI6
aI3
aI12
aI8
aI10
aI8
aI9
aI8
aI7
aI4
aI7
aI7
aI4
aI5
aI6
aI7
aI3
aI3
aI9
aI12
aI6
aI2
aI4
aI4
aI8
aI3
aI3
aI8
aI7
aI5
aI6
aI4
aI5
aI2
aI4
aI7
aI4
aI7
aI2
aI7
aI3
aI8
aI10
aI5
aI8
aI5
aI6
aI7
aI7
aI3
aI7
aI10
aI1
aI2
aI7
aI6
aI4
aI5
aI6
aI7
aI3
aI10
aI9
aI13
aI3
aI9
aI5
aI6
aI10
aI5
aI7
aI6
aI5
aI7
aI6
aI6
aI10
aI5
aI8
aI5
aI5
aI5
aI3
aI7
aI5
aI3
aI7
aI1
aI3
aI3
aI9
aI4
aI3
aI8
aI7
aI10
aI7
aI2
aI6
aI4
aI4
aI6
aI6
aI6
aI5
aI8
aI8
aI5
aI6
aI6
aI3
aI3
aI6
aI6
aI9
aI4
aI7
aI6
aI2
aI8
aI7
aI4
aI6
aI4
aI1
aI4
aI7
aI7
aI4
aI2
aI4
aI7
aI2
aI8
aI5
aI5
aI6
aI3
aI3
aI1
aI9
aI9
aI5
aI11
aI3
aI9
aI9
aI8
aI2
aI10
aI4
aI10
aI5
aI8
aI6
aI6
aI10
aI8
aI6
aI2
aI4
aI7
aI6
aI3
aI5
aI8
aI7
aI2
aI4
aI5
aI5
aI4
aI2
aI10
aI11
aI6
aI7
aI7
aI4
aI4
aI4
aI4
aI7
aI10
aI8
aI4
aI6
aI3
aI6
aI5
aI12
aI5
aI4
aI7
aI7
aI8
aI6
aI10
aI11
aI7
aI7
aI6
aI12
aI1
aI9
aI5
aI5
aI1
aI7
aI4
aI5
aI8
aI3
aI6
aI4
aI7
aI5
aI6
aI7
aI6
aI2
aI5
aI4
aI12
aI10
aI6
aI5
aI4
aI3
aI7
aI4
aI8
aI7
aI5
aI6
aI5
aI6
aI9
aI8
aI3
aI6
aI5
aI7
aI10
aI7
aI10
aI5
aI8
aI8
aI7
aI4
aI7
aI4
aI7
aI5
aI4
aI9
aI3
aI3
aI5
aI9
aI2
aI5
aI10
aI3
aI2
aI8
aI3
aI10
aI4
aI5
aI7
aI8
aI6
aI5
aI5
aI5
aI5
aI7
aI4
aI6
aI8
aI4
aI2
aI6
aI7
aI4
aI5
aI4
aI7
aI5
aI5
aI7
aI10
aI10
aI7
aI4
aI7
aI9
aI7
aI5
aI12
aI4
aI9
aI8
aI7
aI9
aI6
aI8
aI12
aI6
aI1
aI7
aI8
aI4
aI5
aI8
aI13
aI4
aI8
aI6
aI6
aI4
aI6
aI3
aI6
aI8
aI7
aI2
aI4
aI8
aI7
aI6
aI9
aI4
aI5
aI5
aI5
aI7
aI9
aI5
aI5
aI6
aI10
aI7
aI5
aI9
aI11
aI3
aI10
aI8
aI7
aI11
aI8
aI8
aI5
aI2
aI4
aI2
aI2
aI8
aI6
aI6
aI8
aI6
aI5
aI4
aI5
aI7
aI4
aI6
aI5
aI4
aI7
aI4
aI8
aI4
aI7
aI7
aI2
aI4
aI2
aI5
aI6
aI1
aI6
aI2
aI9
aI4
aI6
aI10
aI7
aI2
aI11
aI6
aI5
aI5
aI7
aI4
aI7
aI7
aI8
aI6
aI6
aI6
aI9
aI6
aI7
aI6
aI5
aI8
aI2
aI8
aI9
aI3
aI5
aI5
aI3
aI8
aI5
aI7
aI7
aI7
aI6
aI2
aI5
aI6
aI4
aI4
aI8
aI9
aI10
aI2
aI5
aI5
aI6
aI8
aI5
aI5
aI8
aI4
aI5
aI7
aI6
aI12
aI7
aI3
aI7
aI3
aI10
aI7
aI10
aI3
aI7
aI3
aI5
aI8
aI4
aI7
aI5
aI8
aI3
aI5
aI11
aI5
aI5
aI8
aI12
aI4
aI6
aI4
aI9
aI6
aI14
aI6
aI7
aI5
aI7
aI7
aI9
aI11
aI9
aI10
aI8
aI6
aI9
aI7
aI5
aI7
aI10
aI5
aI11
aI6
aI7
aI4
aI6
aI12
aI6
aI7
aI10
aI7
aI5
aI9
aI7
aI8
aI7
aI4
aI6
aI3
aI8
aI6
aI5
aI5
aI7
aI4
aI4
aI2
aI7
aI9
aI8
aI6
aI8
aI3
aI3
aI7
aI9
aI6
aI4
aI4
aI6
aI6
aI5
aI5
aI6
aI5
aI4
aI8
aI5
aI6
aI4
aI8
aI2
aI6
aI2
aI5
aI10
aI6
aI10
aI3
aI8
aI4
aI4
aI2
aI5
aI7
aI7
aI2
aI2
aI7
aI9
aI6
aI6
aI8
aI5
aI7
aI7
aI3
aI7
aI3
aI6
aI11
aI6
aI8
aI6
aI2
aI4
aI3
aI6
aI2
aI11
aI8
aI2
aI3
aI2
aI5
aI9
aI4
aI3
aI6
aI5
aI5
aI8
aI8
aI2
aI2
aI7
aI5
aI3
aI5
aI6
aI8
aI4
aI1
aI7
aI5
aI4
aI5
aI10
aI6
aI5
aI5
aI7
aI8
aI8
aI10
aI1
aI4
aI13
aI8
aI4
aI7
aI3
aI9
aI6
aI5
aI8
aI4
aI9
aI9
aI3
aI5
aI4
aI9
aI10
aI3
aI12
aI5
aI3
aI7
aI6
aI8
aI4
aI5
aI5
aI7
aI10
aI6
aI3
aI1
aI5
aI14
aI4
aI8
aI6
aI9
aI6
aI5
aI8
aI10
aI8
aI5
aI11
aI7
aI8
aI3
aI6
aI9
aasg10
(lp20
F0.004795837495837493
asg12
(lp21
I0
assS'clique_6'
p22
(dp23
g3
(lp24
F4.038986986986987
asg5
(lp25
F0.0010589063639893832
asg7
(lp26
(lp27
I2
aI5
aI5
aI5
aI9
aI4
aI8
aI7
aI10
aI1
aI6
aI6
aI8
aI7
aI6
aI4
aI7
aI3
aI5
aI5
aI6
aI9
aI5
aI4
aI4
aI3
aI5
aI6
aI6
aI11
aI4
aI8
aI6
aI8
aI5
aI3
aI3
aI4
aI4
aI2
aI6
aI5
aI4
aI5
aI10
aI3
aI4
aI4
aI4
aI4
aI11
aI5
aI8
aI7
aI4
aI3
aI3
aI4
aI3
aI2
aI7
aI7
aI4
aI4
aI5
aI5
aI8
aI5
aI3
aI6
aI5
aI4
aI5
aI6
aI4
aI8
aI5
aI11
aI7
aI9
aI5
aI7
aI3
aI9
aI3
aI8
aI3
aI5
aI9
aI4
aI3
aI6
aI3
aI11
aI8
aI5
aI7
aI8
aI7
aI6
aI4
aI6
aI4
aI10
aI4
aI5
aI1
aI4
aI9
aI3
aI1
aI7
aI10
aI8
aI5
aI14
aI9
aI4
aI7
aI7
aI5
aI4
aI3
aI5
aI8
aI7
aI4
aI6
aI4
aI10
aI11
aI7
aI6
aI9
aI7
aI9
aI4
aI5
aI5
aI7
aI7
aI8
aI7
aI6
aI7
aI5
aI10
aI12
aI5
aI10
aI6
aI6
aI8
aI3
aI8
aI6
aI6
aI6
aI5
aI7
aI4
aI3
aI3
aI3
aI7
aI4
aI5
aI7
aI5
aI9
aI7
aI12
aI5
aI5
aI3
aI1
aI3
aI1
aI5
aI13
aI9
aI7
aI8
aI4
aI7
aI10
aI5
aI6
aI8
aI10
aI5
aI5
aI4
aI5
aI8
aI2
aI8
aI15
aI6
aI6
aI9
aI5
aI11
aI8
aI4
aI4
aI9
aI7
aI5
aI6
aI6
aI2
aI6
aI5
aI8
aI9
aI13
aI1
aI7
aI5
aI7
aI6
aI12
aI6
aI4
aI7
aI4
aI5
aI8
aI7
aI5
aI2
aI4
aI11
aI7
aI7
aI5
aI8
aI3
aI5
aI7
aI8
aI11
aI3
aI13
aI6
aI9
aI6
aI6
aI3
aI3
aI5
aI10
aI6
aI2
aI8
aI5
aI6
aI9
aI8
aI4
aI7
aI9
aI8
aI6
aI6
aI8
aI5
aI12
aI6
aI6
aI10
aI4
aI6
aI4
aI4
aI7
aI5
aI7
aI6
aI6
aI5
aI5
aI6
aI3
aI7
aI6
aI3
aI9
aI9
aI6
aI3
aI3
aI6
aI6
aI5
aI3
aI11
aI10
aI4
aI7
aI2
aI5
aI5
aI6
aI4
aI4
aI7
aI4
aI6
aI3
aI8
aI9
aI6
aI7
aI5
aI5
aI5
aI7
aI7
aI3
aI7
aI2
aI6
aI7
aI4
aI9
aI5
aI5
aI7
aI6
aI1
aI10
aI6
aI3
aI12
aI7
aI10
aI8
aI9
aI8
aI7
aI4
aI7
aI7
aI5
aI5
aI6
aI7
aI3
aI3
aI9
aI12
aI6
aI2
aI4
aI4
aI8
aI3
aI3
aI8
aI7
aI5
aI6
aI4
aI5
aI2
aI4
aI7
aI4
aI7
aI2
aI7
aI3
aI9
aI10
aI5
aI8
aI5
aI6
aI7
aI7
aI4
aI8
aI10
aI1
aI2
aI7
aI6
aI4
aI5
aI6
aI7
aI3
aI10
aI9
aI13
aI3
aI9
aI5
aI6
aI10
aI5
aI7
aI6
aI5
aI7
aI6
aI6
aI11
aI5
aI8
aI5
aI5
aI5
aI3
aI7
aI5
aI3
aI7
aI1
aI3
aI3
aI10
aI4
aI3
aI8
aI7
aI10
aI7
aI3
aI6
aI4
aI4
aI6
aI6
aI6
aI5
aI8
aI8
aI5
aI6
aI6
aI3
aI4
aI6
aI6
aI9
aI4
aI7
aI6
aI2
aI8
aI7
aI4
aI6
aI4
aI1
aI4
aI7
aI7
aI4
aI2
aI4
aI7
aI2
aI8
aI5
aI5
aI6
aI3
aI3
aI1
aI9
aI9
aI5
aI11
aI3
aI10
aI9
aI8
aI2
aI10
aI4
aI10
aI5
aI8
aI6
aI6
aI10
aI8
aI6
aI2
aI4
aI7
aI6
aI3
aI5
aI8
aI7
aI2
aI4
aI5
aI5
aI4
aI2
aI10
aI11
aI6
aI7
aI7
aI4
aI4
aI4
aI4
aI7
aI10
aI8
aI4
aI6
aI3
aI6
aI5
aI12
aI5
aI4
aI7
aI7
aI8
aI6
aI10
aI11
aI7
aI7
aI6
aI12
aI1
aI9
aI6
aI5
aI1
aI7
aI4
aI5
aI8
aI3
aI6
aI4
aI7
aI5
aI6
aI7
aI6
aI2
aI5
aI4
aI12
aI10
aI6
aI5
aI4
aI3
aI7
aI4
aI8
aI7
aI5
aI6
aI5
aI6
aI9
aI8
aI3
aI6
aI5
aI7
aI10
aI7
aI10
aI5
aI8
aI8
aI7
aI4
aI7
aI4
aI7
aI5
aI4
aI9
aI3
aI3
aI5
aI9
aI2
aI5
aI10
aI3
aI2
aI9
aI3
aI10
aI4
aI5
aI7
aI8
aI6
aI5
aI6
aI5
aI5
aI7
aI4
aI6
aI8
aI4
aI2
aI6
aI7
aI4
aI5
aI4
aI7
aI5
aI5
aI7
aI10
aI10
aI7
aI4
aI7
aI9
aI7
aI5
aI13
aI4
aI9
aI8
aI7
aI9
aI6
aI8
aI12
aI6
aI1
aI7
aI8
aI4
aI5
aI8
aI13
aI4
aI8
aI6
aI5
aI4
aI6
aI3
aI6
aI9
aI7
aI2
aI4
aI8
aI7
aI6
aI9
aI4
aI5
aI5
aI5
aI9
aI9
aI5
aI5
aI6
aI10
aI7
aI5
aI9
aI11
aI3
aI10
aI8
aI7
aI11
aI8
aI8
aI5
aI2
aI4
aI2
aI2
aI8
aI6
aI6
aI8
aI6
aI5
aI4
aI5
aI7
aI4
aI6
aI5
aI4
aI7
aI4
aI8
aI4
aI7
aI7
aI2
aI4
aI2
aI5
aI6
aI1
aI6
aI2
aI9
aI4
aI6
aI10
aI7
aI2
aI11
aI6
aI5
aI5
aI7
aI4
aI7
aI7
aI7
aI6
aI6
aI6
aI9
aI6
aI7
aI6
aI5
aI8
aI2
aI8
aI9
aI3
aI5
aI5
aI3
aI8
aI5
aI7
aI7
aI7
aI6
aI2
aI5
aI6
aI4
aI4
aI8
aI9
aI10
aI2
aI5
aI5
aI6
aI8
aI5
aI5
aI8
aI4
aI5
aI7
aI6
aI12
aI7
aI3
aI7
aI3
aI10
aI7
aI10
aI3
aI7
aI3
aI5
aI8
aI4
aI7
aI5
aI8
aI3
aI5
aI11
aI5
aI5
aI8
aI12
aI4
aI6
aI4
aI9
aI6
aI14
aI6
aI7
aI5
aI7
aI7
aI9
aI11
aI9
aI10
aI8
aI6
aI9
aI7
aI5
aI7
aI10
aI5
aI11
aI6
aI7
aI4
aI6
aI12
aI6
aI7
aI10
aI7
aI5
aI9
aI7
aI6
aI7
aI4
aI6
aI3
aI8
aI6
aI5
aI5
aI7
aI4
aI4
aI2
aI7
aI9
aI8
aI6
aI8
aI3
aI3
aI7
aI9
aI6
aI4
aI4
aI6
aI6
aI5
aI5
aI6
aI5
aI4
aI8
aI5
aI6
aI4
aI8
aI2
aI6
aI3
aI5
aI11
aI6
aI10
aI3
aI8
aI4
aI4
aI2
aI5
aI7
aI7
aI2
aI2
aI8
aI9
aI6
aI6
aI8
aI5
aI7
aI7
aI3
aI7
aI3
aI6
aI11
aI7
aI8
aI6
aI2
aI4
aI3
aI6
aI2
aI11
aI8
aI2
aI3
aI2
aI5
aI9
aI4
aI3
aI6
aI5
aI5
aI8
aI8
aI2
aI2
aI7
aI5
aI3
aI5
aI6
aI8
aI4
aI1
aI7
aI5
aI4
aI5
aI8
aI6
aI5
aI5
aI7
aI8
aI8
aI10
aI1
aI4
aI13
aI8
aI4
aI7
aI3
aI9
aI6
aI5
aI8
aI4
aI8
aI9
aI3
aI5
aI6
aI9
aI10
aI3
aI12
aI5
aI3
aI7
aI6
aI8
aI4
aI5
aI5
aI7
aI10
aI6
aI3
aI1
aI5
aI14
aI4
aI8
aI6
aI9
aI6
aI5
aI8
aI10
aI8
aI5
aI11
aI7
aI8
aI3
aI6
aI9
aasg10
(lp28
F0.006090098790098784
asg12
(lp29
I0
assS'square'
p30
(dp31
g3
(lp32
F4.038346964198667
asg5
(lp33
F0.0011939950970942586
asg7
(lp34
(lp35
I2
aI5
aI5
aI5
aI9
aI4
aI8
aI7
aI10
aI1
aI6
aI6
aI7
aI7
aI6
aI4
aI7
aI3
aI5
aI5
aI6
aI9
aI5
aI4
aI4
aI3
aI5
aI6
aI6
aI11
aI4
aI8
aI6
aI8
aI5
aI3
aI3
aI4
aI4
aI2
aI6
aI5
aI4
aI5
aI10
aI3
aI4
aI4
aI4
aI4
aI11
aI5
aI8
aI7
aI4
aI3
aI3
aI4
aI3
aI2
aI7
aI7
aI4
aI4
aI5
aI5
aI8
aI5
aI3
aI6
aI5
aI4
aI5
aI6
aI4
aI8
aI5
aI11
aI7
aI9
aI5
aI7
aI3
aI9
aI3
aI8
aI3
aI5
aI9
aI4
aI3
aI6
aI3
aI11
aI8
aI5
aI7
aI8
aI7
aI6
aI4
aI6
aI4
aI10
aI4
aI5
aI1
aI4
aI9
aI5
aI1
aI7
aI10
aI8
aI5
aI14
aI9
aI4
aI7
aI7
aI5
aI4
aI3
aI5
aI8
aI6
aI4
aI6
aI4
aI10
aI11
aI7
aI5
aI9
aI7
aI9
aI4
aI5
aI5
aI7
aI7
aI8
aI7
aI6
aI7
aI5
aI10
aI11
aI5
aI10
aI6
aI6
aI8
aI3
aI8
aI6
aI6
aI6
aI5
aI7
aI4
aI3
aI3
aI3
aI7
aI4
aI5
aI7
aI5
aI9
aI7
aI12
aI5
aI5
aI3
aI1
aI3
aI1
aI5
aI13
aI9
aI6
aI8
aI4
aI7
aI10
aI5
aI6
aI8
aI10
aI5
aI5
aI4
aI5
aI8
aI2
aI8
aI15
aI6
aI6
aI9
aI5
aI11
aI8
aI4
aI4
aI9
aI7
aI5
aI6
aI6
aI2
aI6
aI5
aI9
aI9
aI13
aI1
aI7
aI5
aI7
aI6
aI12
aI6
aI4
aI7
aI4
aI5
aI8
aI7
aI5
aI2
aI4
aI11
aI7
aI7
aI5
aI6
aI3
aI5
aI7
aI8
aI11
aI3
aI12
aI6
aI9
aI6
aI6
aI3
aI3
aI5
aI10
aI6
aI2
aI7
aI5
aI6
aI9
aI10
aI4
aI7
aI9
aI8
aI6
aI6
aI8
aI5
aI12
aI6
aI6
aI9
aI4
aI6
aI4
aI4
aI7
aI5
aI7
aI6
aI6
aI5
aI5
aI6
aI3
aI7
aI6
aI3
aI9
aI9
aI6
aI3
aI3
aI6
aI6
aI5
aI3
aI11
aI10
aI4
aI7
aI2
aI5
aI5
aI6
aI4
aI4
aI7
aI4
aI6
aI3
aI8
aI9
aI6
aI7
aI5
aI5
aI6
aI7
aI7
aI3
aI7
aI2
aI6
aI7
aI4
aI9
aI5
aI5
aI7
aI6
aI1
aI10
aI6
aI3
aI12
aI8
aI10
aI8
aI9
aI8
aI7
aI4
aI7
aI7
aI5
aI5
aI6
aI7
aI3
aI3
aI9
aI12
aI6
aI2
aI4
aI4
aI8
aI3
aI3
aI8
aI6
aI5
aI6
aI4
aI5
aI2
aI4
aI7
aI4
aI7
aI2
aI7
aI3
aI9
aI10
aI5
aI8
aI5
aI6
aI7
aI7
aI4
aI8
aI10
aI1
aI2
aI7
aI6
aI4
aI5
aI6
aI6
aI3
aI9
aI9
aI13
aI3
aI9
aI5
aI6
aI10
aI5
aI7
aI5
aI5
aI7
aI6
aI6
aI11
aI5
aI8
aI5
aI5
aI5
aI3
aI7
aI5
aI3
aI7
aI1
aI3
aI3
aI10
aI4
aI2
aI8
aI7
aI10
aI7
aI3
aI6
aI4
aI4
aI6
aI6
aI6
aI5
aI8
aI8
aI5
aI6
aI6
aI3
aI4
aI6
aI6
aI8
aI4
aI7
aI6
aI2
aI8
aI7
aI4
aI6
aI4
aI1
aI4
aI7
aI7
aI4
aI2
aI4
aI7
aI2
aI8
aI5
aI5
aI6
aI3
aI3
aI1
aI9
aI9
aI5
aI11
aI3
aI10
aI9
aI8
aI2
aI10
aI4
aI10
aI5
aI8
aI6
aI6
aI10
aI8
aI6
aI4
aI7
aI6
aI3
aI5
aI7
aI7
aI2
aI4
aI5
aI5
aI4
aI2
aI10
aI11
aI6
aI7
aI7
aI4
aI4
aI4
aI4
aI7
aI10
aI8
aI4
aI7
aI3
aI6
aI5
aI12
aI5
aI4
aI7
aI7
aI8
aI6
aI10
aI11
aI7
aI7
aI6
aI12
aI1
aI9
aI6
aI5
aI1
aI7
aI4
aI5
aI8
aI3
aI6
aI4
aI7
aI5
aI6
aI7
aI6
aI2
aI5
aI4
aI12
aI10
aI6
aI5
aI4
aI3
aI7
aI4
aI8
aI7
aI5
aI6
aI5
aI6
aI9
aI8
aI3
aI6
aI5
aI7
aI10
aI7
aI10
aI5
aI8
aI8
aI7
aI4
aI7
aI4
aI7
aI5
aI4
aI9
aI3
aI3
aI5
aI9
aI2
aI5
aI10
aI3
aI2
aI8
aI3
aI10
aI4
aI5
aI7
aI8
aI6
aI5
aI5
aI5
aI5
aI7
aI4
aI6
aI8
aI4
aI2
aI6
aI7
aI4
aI5
aI4
aI6
aI5
aI5
aI7
aI10
aI10
aI7
aI3
aI7
aI9
aI7
aI5
aI13
aI4
aI9
aI8
aI7
aI9
aI6
aI8
aI12
aI6
aI1
aI7
aI8
aI4
aI5
aI8
aI13
aI4
aI8
aI6
aI6
aI4
aI6
aI3
aI6
aI9
aI7
aI2
aI4
aI8
aI7
aI6
aI9
aI4
aI5
aI5
aI5
aI9
aI9
aI5
aI5
aI6
aI10
aI7
aI5
aI9
aI11
aI3
aI10
aI8
aI7
aI11
aI8
aI8
aI5
aI2
aI4
aI2
aI2
aI8
aI6
aI6
aI8
aI6
aI5
aI4
aI5
aI7
aI4
aI6
aI5
aI4
aI7
aI4
aI8
aI4
aI7
aI7
aI2
aI4
aI2
aI5
aI6
aI1
aI6
aI2
aI9
aI4
aI6
aI10
aI7
aI2
aI11
aI6
aI5
aI5
aI7
aI4
aI7
aI7
aI8
aI6
aI6
aI6
aI9
aI6
aI7
aI6
aI5
aI8
aI2
aI8
aI9
aI3
aI5
aI5
aI3
aI8
aI5
aI7
aI7
aI7
aI6
aI2
aI5
aI6
aI4
aI4
aI8
aI9
aI10
aI2
aI5
aI5
aI6
aI8
aI5
aI5
aI8
aI4
aI5
aI7
aI6
aI12
aI7
aI3
aI7
aI3
aI10
aI7
aI10
aI3
aI7
aI3
aI5
aI8
aI4
aI7
aI5
aI8
aI2
aI5
aI11
aI5
aI5
aI8
aI12
aI4
aI6
aI4
aI9
aI6
aI14
aI6
aI7
aI5
aI7
aI7
aI9
aI11
aI9
aI10
aI8
aI6
aI9
aI7
aI5
aI7
aI10
aI5
aI11
aI6
aI7
aI4
aI6
aI12
aI6
aI7
aI10
aI7
aI5
aI9
aI7
aI8
aI7
aI4
aI6
aI3
aI8
aI6
aI5
aI5
aI7
aI4
aI4
aI2
aI7
aI9
aI8
aI6
aI8
aI3
aI3
aI7
aI9
aI6
aI4
aI4
aI6
aI6
aI5
aI5
aI6
aI5
aI4
aI8
aI5
aI6
aI4
aI8
aI2
aI6
aI3
aI5
aI11
aI6
aI10
aI3
aI8
aI4
aI4
aI2
aI5
aI7
aI7
aI2
aI2
aI9
aI9
aI6
aI6
aI8
aI5
aI7
aI7
aI3
aI7
aI3
aI6
aI11
aI7
aI8
aI6
aI2
aI4
aI3
aI6
aI2
aI11
aI8
aI2
aI3
aI2
aI5
aI9
aI4
aI3
aI6
aI5
aI5
aI8
aI8
aI2
aI2
aI7
aI5
aI3
aI5
aI6
aI8
aI4
aI1
aI7
aI5
aI4
aI5
aI10
aI6
aI5
aI5
aI7
aI8
aI8
aI10
aI1
aI4
aI13
aI8
aI4
aI7
aI3
aI9
aI6
aI5
aI8
aI4
aI8
aI9
aI3
aI5
aI6
aI9
aI10
aI3
aI12
aI5
aI3
aI7
aI6
aI8
aI4
aI5
aI5
aI7
aI10
aI6
aI3
aI1
aI5
aI14
aI4
aI8
aI6
aI9
aI5
aI5
aI8
aI10
aI8
aI5
aI11
aI7
aI8
aI3
aI6
aI9
aasg10
(lp36
F0.004912538245871576
asg12
(lp37
I0
assS'triangle'
p38
(dp39
g3
(lp40
F4.04594994994995
asg5
(lp41
F0.000999945440381439
asg7
(lp42
(lp43
I2
aI5
aI5
aI5
aI9
aI4
aI8
aI7
aI10
aI1
aI6
aI6
aI9
aI7
aI6
aI4
aI7
aI3
aI5
aI5
aI6
aI9
aI5
aI4
aI4
aI3
aI5
aI6
aI6
aI11
aI4
aI8
aI6
aI8
aI5
aI3
aI3
aI4
aI4
aI2
aI6
aI5
aI4
aI5
aI10
aI3
aI4
aI4
aI4
aI4
aI11
aI5
aI8
aI7
aI4
aI3
aI3
aI4
aI3
aI2
aI7
aI7
aI4
aI4
aI5
aI5
aI8
aI5
aI3
aI6
aI5
aI4
aI5
aI6
aI4
aI8
aI5
aI11
aI7
aI9
aI5
aI7
aI3
aI9
aI3
aI8
aI3
aI5
aI9
aI4
aI3
aI6
aI3
aI11
aI8
aI5
aI7
aI8
aI7
aI6
aI4
aI6
aI4
aI10
aI4
aI5
aI1
aI4
aI9
aI5
aI1
aI7
aI10
aI8
aI5
aI14
aI9
aI4
aI7
aI7
aI5
aI4
aI3
aI5
aI8
aI7
aI3
aI6
aI4
aI10
aI11
aI7
aI6
aI9
aI7
aI9
aI4
aI5
aI5
aI7
aI7
aI8
aI7
aI6
aI7
aI5
aI10
aI12
aI5
aI10
aI6
aI6
aI8
aI3
aI8
aI6
aI6
aI6
aI5
aI7
aI4
aI3
aI3
aI3
aI7
aI4
aI5
aI7
aI5
aI9
aI7
aI12
aI5
aI5
aI3
aI1
aI3
aI1
aI5
aI13
aI9
aI7
aI8
aI4
aI7
aI10
aI5
aI6
aI8
aI10
aI5
aI5
aI4
aI5
aI8
aI2
aI8
aI14
aI6
aI6
aI9
aI5
aI10
aI8
aI4
aI4
aI9
aI7
aI5
aI6
aI6
aI2
aI6
aI5
aI9
aI9
aI13
aI1
aI7
aI5
aI7
aI6
aI12
aI6
aI4
aI7
aI4
aI5
aI8
aI7
aI5
aI2
aI4
aI11
aI7
aI5
aI5
aI8
aI3
aI5
aI7
aI8
aI11
aI3
aI13
aI6
aI9
aI6
aI6
aI3
aI3
aI5
aI10
aI6
aI2
aI8
aI5
aI6
aI9
aI10
aI4
aI7
aI7
aI8
aI6
aI6
aI8
aI5
aI12
aI5
aI6
aI10
aI4
aI6
aI4
aI4
aI7
aI5
aI7
aI6
aI6
aI5
aI5
aI6
aI3
aI7
aI6
aI3
aI8
aI9
aI6
aI3
aI3
aI6
aI6
aI5
aI3
aI11
aI10
aI4
aI7
aI2
aI5
aI5
aI6
aI4
aI4
aI7
aI4
aI6
aI3
aI8
aI9
aI6
aI7
aI5
aI5
aI6
aI7
aI7
aI3
aI7
aI2
aI6
aI7
aI4
aI9
aI5
aI5
aI7
aI6
aI1
aI10
aI6
aI3
aI12
aI8
aI10
aI8
aI9
aI8
aI7
aI4
aI7
aI7
aI5
aI5
aI6
aI7
aI3
aI3
aI9
aI12
aI6
aI2
aI4
aI4
aI8
aI3
aI3
aI8
aI7
aI5
aI6
aI4
aI5
aI2
aI4
aI7
aI4
aI7
aI2
aI7
aI3
aI9
aI10
aI5
aI8
aI5
aI6
aI7
aI7
aI4
aI8
aI10
aI1
aI2
aI7
aI6
aI4
aI5
aI6
aI6
aI3
aI10
aI9
aI13
aI3
aI9
aI5
aI6
aI10
aI5
aI7
aI6
aI5
aI7
aI6
aI6
aI11
aI5
aI8
aI5
aI5
aI5
aI3
aI7
aI5
aI3
aI7
aI1
aI3
aI3
aI8
aI4
aI3
aI8
aI7
aI10
aI7
aI3
aI6
aI4
aI4
aI6
aI6
aI6
aI5
aI8
aI8
aI5
aI6
aI6
aI3
aI4
aI6
aI6
aI9
aI4
aI7
aI4
aI2
aI8
aI7
aI4
aI6
aI4
aI1
aI4
aI7
aI7
aI4
aI2
aI4
aI7
aI2
aI8
aI5
aI5
aI6
aI3
aI3
aI1
aI9
aI9
aI5
aI11
aI3
aI10
aI9
aI8
aI2
aI10
aI4
aI10
aI5
aI8
aI6
aI6
aI10
aI8
aI6
aI2
aI4
aI7
aI6
aI3
aI5
aI8
aI7
aI2
aI4
aI5
aI5
aI4
aI2
aI10
aI11
aI6
aI7
aI7
aI4
aI4
aI4
aI4
aI7
aI10
aI8
aI4
aI6
aI3
aI6
aI5
aI12
aI5
aI4
aI7
aI7
aI8
aI6
aI10
aI11
aI7
aI7
aI6
aI12
aI1
aI9
aI6
aI5
aI1
aI7
aI4
aI5
aI8
aI3
aI6
aI4
aI7
aI5
aI6
aI7
aI6
aI2
aI5
aI4
aI12
aI10
aI6
aI5
aI4
aI3
aI7
aI4
aI8
aI7
aI5
aI6
aI5
aI6
aI9
aI8
aI3
aI6
aI5
aI7
aI10
aI7
aI10
aI5
aI8
aI8
aI7
aI4
aI7
aI4
aI7
aI5
aI4
aI9
aI3
aI3
aI5
aI9
aI2
aI5
aI10
aI3
aI2
aI9
aI3
aI10
aI4
aI5
aI7
aI8
aI6
aI5
aI5
aI5
aI5
aI7
aI4
aI6
aI8
aI4
aI2
aI6
aI7
aI4
aI5
aI4
aI7
aI5
aI5
aI7
aI10
aI10
aI7
aI4
aI7
aI9
aI7
aI5
aI13
aI4
aI9
aI8
aI7
aI9
aI6
aI8
aI12
aI6
aI1
aI7
aI8
aI4
aI5
aI8
aI13
aI4
aI8
aI6
aI6
aI4
aI6
aI3
aI6
aI9
aI7
aI2
aI3
aI8
aI7
aI6
aI9
aI4
aI5
aI5
aI5
aI9
aI9
aI5
aI5
aI6
aI10
aI7
aI5
aI8
aI11
aI3
aI10
aI8
aI7
aI11
aI8
aI8
aI5
aI2
aI4
aI2
aI2
aI8
aI6
aI6
aI9
aI6
aI5
aI4
aI5
aI7
aI4
aI6
aI5
aI4
aI7
aI4
aI8
aI4
aI7
aI7
aI2
aI4
aI2
aI5
aI6
aI1
aI6
aI2
aI9
aI4
aI6
aI10
aI7
aI2
aI11
aI6
aI5
aI5
aI6
aI4
aI7
aI7
aI8
aI6
aI6
aI6
aI9
aI6
aI7
aI6
aI5
aI8
aI2
aI8
aI9
aI3
aI5
aI5
aI3
aI8
aI5
aI7
aI7
aI7
aI6
aI2
aI5
aI6
aI4
aI4
aI8
aI9
aI10
aI2
aI5
aI5
aI6
aI8
aI5
aI5
aI8
aI4
aI5
aI7
aI6
aI12
aI7
aI3
aI7
aI3
aI10
aI7
aI10
aI3
aI7
aI3
aI5
aI8
aI4
aI7
aI5
aI8
aI3
aI5
aI10
aI5
aI5
aI8
aI12
aI4
aI6
aI4
aI9
aI6
aI14
aI6
aI7
aI5
aI7
aI7
aI9
aI10
aI9
aI10
aI8
aI6
aI9
aI7
aI5
aI7
aI10
aI5
aI11
aI6
aI7
aI4
aI6
aI12
aI6
aI7
aI10
aI7
aI5
aI9
aI7
aI8
aI6
aI4
aI6
aI3
aI8
aI6
aI5
aI5
aI7
aI4
aI4
aI2
aI7
aI9
aI8
aI6
aI8
aI3
aI3
aI7
aI9
aI6
aI4
aI4
aI6
aI6
aI5
aI5
aI6
aI5
aI4
aI8
aI5
aI6
aI4
aI8
aI2
aI6
aI3
aI5
aI11
aI6
aI10
aI3
aI8
aI4
aI4
aI2
aI5
aI7
aI7
aI2
aI2
aI8
aI9
aI6
aI6
aI8
aI5
aI7
aI5
aI3
aI7
aI3
aI6
aI11
aI7
aI8
aI6
aI2
aI4
aI3
aI6
aI2
aI11
aI8
aI2
aI3
aI2
aI5
aI9
aI4
aI3
aI6
aI5
aI5
aI8
aI8
aI2
aI2
aI7
aI5
aI3
aI5
aI6
aI8
aI4
aI1
aI7
aI5
aI4
aI5
aI10
aI6
aI5
aI5
aI7
aI8
aI8
aI10
aI1
aI4
aI13
aI7
aI4
aI7
aI3
aI9
aI6
aI5
aI8
aI4
aI9
aI9
aI3
aI5
aI6
aI9
aI10
aI3
aI12
aI5
aI3
aI7
aI6
aI8
aI4
aI5
aI5
aI7
aI10
aI6
aI3
aI1
aI5
aI14
aI4
aI8
aI6
aI9
aI6
aI5
aI8
aI10
aI8
aI5
aI11
aI7
aI8
aI3
aI6
aI9
aasg10
(lp44
F0.004744733044733039
asg12
(lp45
I0
ass.