(dp0
S'clique_4'
p1
(dp2
S'average_shortest_patlen'
p3
(lp4
F4.04548948948949
asS'square_clustering'
p5
(lp6
F0.0011793444520388342
asS'degree_distribution'
p7
(lp8
(lp9
I10
aI6
aI1
aI6
aI4
aI7
aI6
aI7
aI3
aI7
aI6
aI5
aI5
aI5
aI7
aI7
aI5
aI7
aI6
aI6
aI7
aI3
aI4
aI5
aI8
aI7
aI13
aI6
aI5
aI2
aI7
aI5
aI6
aI5
aI10
aI7
aI6
aI4
aI9
aI6
aI10
aI3
aI9
aI4
aI2
aI4
aI7
aI3
aI6
aI9
aI6
aI8
aI8
aI6
aI6
aI4
aI7
aI4
aI7
aI9
aI6
aI10
aI6
aI10
aI6
aI8
aI11
aI9
aI7
aI5
aI7
aI4
aI9
aI7
aI6
aI5
aI7
aI8
aI7
aI6
aI6
aI7
aI14
aI5
aI10
aI11
aI5
aI10
aI6
aI5
aI6
aI6
aI3
aI4
aI8
aI5
aI4
aI6
aI8
aI10
aI6
aI3
aI6
aI14
aI10
aI8
aI8
aI5
aI3
aI7
aI7
aI7
aI6
aI5
aI6
aI4
aI8
aI4
aI4
aI5
aI2
aI6
aI7
aI6
aI5
aI11
aI3
aI5
aI2
aI5
aI4
aI4
aI5
aI6
aI9
aI7
aI3
aI7
aI3
aI5
aI2
aI10
aI5
aI6
aI4
aI8
aI5
aI11
aI2
aI3
aI6
aI4
aI2
aI10
aI4
aI9
aI9
aI7
aI10
aI7
aI11
aI7
aI9
aI8
aI11
aI8
aI8
aI8
aI5
aI2
aI3
aI7
aI6
aI4
aI9
aI3
aI7
aI6
aI7
aI6
aI3
aI8
aI8
aI10
aI3
aI4
aI4
aI7
aI6
aI9
aI6
aI5
aI7
aI7
aI6
aI4
aI4
aI5
aI5
aI5
aI6
aI3
aI9
aI11
aI4
aI4
aI3
aI5
aI3
aI5
aI2
aI5
aI3
aI7
aI6
aI7
aI7
aI4
aI8
aI1
aI6
aI3
aI5
aI7
aI2
aI6
aI7
aI4
aI8
aI6
aI5
aI3
aI5
aI3
aI5
aI11
aI9
aI9
aI6
aI7
aI6
aI6
aI7
aI7
aI6
aI4
aI8
aI8
aI6
aI9
aI2
aI6
aI5
aI9
aI8
aI11
aI6
aI3
aI9
aI9
aI5
aI13
aI6
aI2
aI7
aI7
aI4
aI3
aI4
aI4
aI10
aI5
aI7
aI9
aI12
aI4
aI9
aI2
aI3
aI7
aI7
aI10
aI3
aI8
aI4
aI4
aI1
aI7
aI5
aI7
aI5
aI10
aI6
aI5
aI10
aI3
aI6
aI6
aI7
aI8
aI4
aI2
aI5
aI7
aI3
aI4
aI4
aI2
aI5
aI5
aI8
aI8
aI3
aI5
aI5
aI14
aI8
aI5
aI3
aI5
aI12
aI5
aI7
aI10
aI4
aI6
aI2
aI5
aI4
aI10
aI15
aI4
aI6
aI5
aI4
aI8
aI5
aI5
aI6
aI4
aI6
aI6
aI4
aI1
aI5
aI4
aI3
aI5
aI3
aI2
aI7
aI5
aI7
aI8
aI6
aI8
aI5
aI2
aI5
aI8
aI11
aI3
aI10
aI6
aI7
aI4
aI6
aI4
aI6
aI5
aI9
aI2
aI7
aI6
aI8
aI10
aI2
aI6
aI3
aI5
aI6
aI5
aI9
aI7
aI2
aI10
aI5
aI12
aI5
aI5
aI7
aI8
aI6
aI6
aI11
aI5
aI3
aI6
aI7
aI7
aI2
aI5
aI10
aI4
aI8
aI7
aI9
aI4
aI8
aI2
aI4
aI7
aI6
aI11
aI4
aI6
aI9
aI7
aI6
aI4
aI9
aI2
aI8
aI7
aI7
aI9
aI7
aI4
aI5
aI5
aI9
aI4
aI3
aI11
aI9
aI5
aI4
aI9
aI6
aI5
aI5
aI6
aI4
aI7
aI6
aI3
aI8
aI7
aI7
aI5
aI5
aI10
aI8
aI10
aI6
aI6
aI6
aI10
aI4
aI4
aI5
aI5
aI5
aI6
aI9
aI3
aI8
aI8
aI10
aI6
aI7
aI10
aI3
aI3
aI5
aI4
aI7
aI6
aI5
aI8
aI3
aI6
aI7
aI3
aI5
aI4
aI4
aI6
aI6
aI7
aI7
aI4
aI7
aI5
aI7
aI12
aI6
aI8
aI4
aI4
aI1
aI6
aI4
aI4
aI10
aI5
aI4
aI8
aI7
aI5
aI11
aI5
aI5
aI7
aI4
aI6
aI13
aI3
aI10
aI7
aI9
aI4
aI8
aI7
aI11
aI6
aI5
aI7
aI5
aI6
aI7
aI6
aI5
aI4
aI6
aI4
aI6
aI5
aI3
aI6
aI7
aI8
aI11
aI7
aI1
aI6
aI9
aI6
aI4
aI7
aI3
aI3
aI3
aI10
aI2
aI4
aI5
aI7
aI4
aI6
aI3
aI8
aI7
aI5
aI5
aI4
aI7
aI10
aI4
aI11
aI5
aI4
aI4
aI4
aI8
aI5
aI4
aI2
aI10
aI4
aI3
aI2
aI7
aI6
aI6
aI8
aI8
aI8
aI4
aI5
aI12
aI4
aI2
aI9
aI1
aI7
aI10
aI4
aI4
aI8
aI3
aI10
aI8
aI5
aI12
aI3
aI9
aI5
aI5
aI6
aI13
aI9
aI6
aI4
aI6
aI7
aI2
aI3
aI6
aI8
aI5
aI4
aI12
aI8
aI3
aI7
aI9
aI10
aI6
aI5
aI10
aI1
aI9
aI10
aI8
aI4
aI2
aI6
aI5
aI3
aI5
aI7
aI2
aI6
aI6
aI5
aI9
aI5
aI8
aI6
aI5
aI7
aI13
aI7
aI8
aI3
aI5
aI4
aI3
aI4
aI3
aI7
aI5
aI8
aI4
aI3
aI6
aI5
aI9
aI6
aI9
aI5
aI6
aI8
aI6
aI5
aI5
aI8
aI6
aI2
aI6
aI6
aI7
aI7
aI4
aI6
aI7
aI9
aI8
aI5
aI8
aI4
aI9
aI5
aI9
aI4
aI7
aI3
aI4
aI6
aI6
aI5
aI8
aI5
aI7
aI4
aI5
aI10
aI7
aI8
aI10
aI8
aI9
aI5
aI4
aI9
aI10
aI6
aI8
aI4
aI10
aI6
aI8
aI7
aI1
aI8
aI4
aI5
aI3
aI8
aI2
aI7
aI4
aI5
aI4
aI4
aI6
aI8
aI5
aI5
aI7
aI5
aI7
aI5
aI4
aI10
aI9
aI10
aI6
aI10
aI2
aI5
aI7
aI10
aI8
aI7
aI2
aI4
aI11
aI6
aI9
aI9
aI3
aI5
aI5
aI5
aI7
aI6
aI7
aI11
aI9
aI5
aI5
aI5
aI4
aI7
aI10
aI5
aI8
aI6
aI3
aI10
aI4
aI9
aI4
aI6
aI4
aI4
aI8
aI4
aI7
aI8
aI7
aI3
aI6
aI9
aI5
aI6
aI4
aI8
aI5
aI9
aI6
aI7
aI10
aI10
aI5
aI7
aI6
aI6
aI3
aI9
aI12
aI5
aI5
aI2
aI10
aI8
aI5
aI6
aI8
aI6
aI3
aI7
aI4
aI7
aI8
aI8
aI6
aI4
aI2
aI13
aI8
aI5
aI6
aI8
aI9
aI2
aI5
aI6
aI4
aI5
aI6
aI7
aI9
aI5
aI7
aI5
aI7
aI6
aI2
aI4
aI7
aI7
aI4
aI10
aI5
aI3
aI5
aI9
aI5
aI10
aI5
aI5
aI8
aI9
aI5
aI3
aI1
aI4
aI8
aI4
aI3
aI5
aI2
aI9
aI4
aI6
aI6
aI4
aI6
aI8
aI5
aI6
aI4
aI2
aI1
aI7
aI6
aI4
aI8
aI5
aI5
aI4
aI8
aI9
aI6
aI10
aI9
aI5
aI4
aI7
aI5
aI1
aI3
aI7
aI4
aI6
aI2
aI7
aI5
aI7
aI6
aI6
aI7
aI11
aI3
aI7
aI5
aI4
aI5
aI9
aI6
aI10
aI6
aI5
aI4
aI9
aI6
aI3
aI5
aI7
aI3
aI4
aI6
aI7
aI6
aI4
aI5
aI6
aI4
aI5
aI6
aI3
aI5
aI7
aI6
aI7
aI4
aI11
aI6
aI9
aI7
aI3
aI9
aI4
aI7
aI6
aI6
aI3
aI12
aI4
aI6
aI5
aI3
aI6
aI4
aI7
aI3
aI5
aI5
aI7
aI7
aI5
aI3
aI3
aI9
aI7
aI4
aI4
aI12
aI7
aI6
aI9
aI8
aI6
aI4
aI1
aI7
aI7
aI5
aI5
aI7
aI5
aI4
aI3
aI6
aI3
aI5
aI4
aasS'triangular_clustering'
p10
(lp11
F0.00599833499833499
asS'number_of_cliques'
p12
(lp13
I0
assS'clique_5'
p14
(dp15
g3
(lp16
F4.045111111111111
asg5
(lp17
F0.0011854490243902174
asg7
(lp18
(lp19
I10
aI6
aI1
aI6
aI4
aI7
aI6
aI7
aI3
aI7
aI6
aI5
aI5
aI5
aI7
aI7
aI5
aI7
aI7
aI6
aI7
aI3
aI4
aI5
aI8
aI7
aI13
aI6
aI5
aI2
aI7
aI5
aI6
aI5
aI10
aI7
aI6
aI4
aI9
aI6
aI10
aI3
aI9
aI4
aI2
aI4
aI7
aI3
aI6
aI9
aI6
aI8
aI7
aI6
aI6
aI4
aI7
aI4
aI7
aI9
aI6
aI9
aI6
aI10
aI6
aI8
aI12
aI9
aI7
aI5
aI7
aI4
aI9
aI7
aI6
aI5
aI6
aI8
aI5
aI6
aI6
aI7
aI13
aI5
aI10
aI11
aI5
aI9
aI6
aI5
aI6
aI6
aI3
aI4
aI8
aI5
aI4
aI6
aI8
aI10
aI6
aI3
aI6
aI14
aI10
aI8
aI8
aI5
aI3
aI7
aI7
aI7
aI7
aI5
aI6
aI4
aI8
aI4
aI4
aI5
aI2
aI6
aI7
aI6
aI5
aI11
aI3
aI5
aI2
aI5
aI4
aI4
aI5
aI6
aI9
aI7
aI3
aI7
aI3
aI5
aI2
aI10
aI5
aI6
aI4
aI8
aI5
aI11
aI2
aI3
aI6
aI4
aI2
aI10
aI4
aI8
aI9
aI7
aI10
aI7
aI11
aI7
aI9
aI8
aI10
aI8
aI8
aI7
aI5
aI2
aI3
aI7
aI6
aI4
aI9
aI3
aI7
aI6
aI7
aI7
aI3
aI8
aI8
aI10
aI3
aI4
aI4
aI7
aI6
aI9
aI6
aI5
aI7
aI7
aI6
aI4
aI4
aI5
aI5
aI5
aI6
aI3
aI9
aI11
aI4
aI4
aI3
aI4
aI3
aI5
aI2
aI5
aI3
aI7
aI6
aI7
aI7
aI4
aI8
aI1
aI6
aI3
aI5
aI7
aI2
aI6
aI7
aI4
aI8
aI6
aI5
aI3
aI5
aI3
aI5
aI11
aI9
aI8
aI6
aI7
aI6
aI6
aI7
aI7
aI6
aI4
aI8
aI9
aI6
aI9
aI2
aI6
aI5
aI9
aI8
aI11
aI6
aI3
aI9
aI9
aI5
aI13
aI6
aI2
aI7
aI7
aI4
aI3
aI3
aI4
aI10
aI5
aI7
aI9
aI12
aI4
aI9
aI2
aI3
aI7
aI7
aI10
aI3
aI8
aI4
aI4
aI1
aI7
aI5
aI7
aI5
aI10
aI6
aI5
aI10
aI3
aI6
aI6
aI7
aI8
aI4
aI2
aI5
aI7
aI3
aI4
aI4
aI2
aI5
aI5
aI8
aI8
aI3
aI5
aI5
aI14
aI8
aI5
aI3
aI5
aI12
aI5
aI7
aI10
aI4
aI5
aI2
aI5
aI4
aI11
aI15
aI4
aI6
aI5
aI4
aI8
aI5
aI5
aI6
aI4
aI6
aI6
aI4
aI1
aI5
aI4
aI3
aI5
aI3
aI2
aI7
aI5
aI7
aI8
aI6
aI8
aI5
aI2
aI5
aI9
aI11
aI3
aI10
aI6
aI7
aI4
aI6
aI4
aI6
aI5
aI9
aI2
aI7
aI6
aI8
aI10
aI2
aI6
aI4
aI5
aI6
aI5
aI8
aI7
aI2
aI10
aI5
aI12
aI5
aI5
aI7
aI8
aI6
aI6
aI11
aI5
aI3
aI6
aI7
aI7
aI2
aI5
aI10
aI4
aI8
aI7
aI9
aI4
aI8
aI2
aI4
aI7
aI6
aI11
aI4
aI6
aI9
aI7
aI6
aI4
aI9
aI2
aI8
aI7
aI7
aI9
aI7
aI4
aI5
aI5
aI8
aI4
aI3
aI11
aI9
aI5
aI4
aI9
aI6
aI5
aI5
aI6
aI4
aI7
aI6
aI3
aI8
aI7
aI7
aI5
aI5
aI10
aI8
aI10
aI6
aI6
aI6
aI10
aI4
aI4
aI5
aI5
aI5
aI6
aI9
aI3
aI8
aI8
aI10
aI6
aI7
aI10
aI3
aI3
aI5
aI4
aI7
aI6
aI5
aI8
aI3
aI6
aI7
aI3
aI5
aI4
aI4
aI6
aI6
aI7
aI6
aI4
aI8
aI5
aI7
aI12
aI6
aI8
aI4
aI4
aI1
aI6
aI4
aI4
aI10
aI5
aI4
aI8
aI7
aI5
aI10
aI5
aI5
aI7
aI4
aI6
aI13
aI3
aI10
aI7
aI9
aI4
aI8
aI7
aI11
aI6
aI5
aI7
aI5
aI6
aI7
aI6
aI5
aI4
aI6
aI4
aI6
aI5
aI3
aI6
aI7
aI8
aI11
aI6
aI1
aI6
aI9
aI6
aI4
aI7
aI3
aI3
aI3
aI9
aI2
aI4
aI5
aI8
aI4
aI6
aI3
aI8
aI7
aI5
aI5
aI4
aI7
aI10
aI4
aI10
aI7
aI4
aI4
aI4
aI8
aI5
aI4
aI2
aI10
aI4
aI3
aI2
aI7
aI6
aI6
aI8
aI8
aI8
aI4
aI5
aI12
aI4
aI2
aI9
aI1
aI7
aI10
aI4
aI4
aI8
aI3
aI10
aI8
aI5
aI13
aI3
aI9
aI5
aI5
aI6
aI14
aI9
aI6
aI4
aI6
aI7
aI2
aI3
aI6
aI8
aI3
aI4
aI11
aI8
aI3
aI7
aI9
aI10
aI6
aI5
aI10
aI1
aI9
aI10
aI8
aI4
aI2
aI6
aI5
aI3
aI5
aI7
aI2
aI6
aI6
aI5
aI9
aI5
aI8
aI6
aI5
aI7
aI13
aI7
aI8
aI3
aI6
aI4
aI3
aI4
aI3
aI7
aI5
aI8
aI4
aI3
aI5
aI5
aI9
aI6
aI7
aI5
aI6
aI9
aI6
aI5
aI5
aI8
aI6
aI2
aI6
aI6
aI7
aI6
aI4
aI6
aI7
aI8
aI8
aI5
aI8
aI4
aI9
aI5
aI9
aI4
aI7
aI3
aI4
aI6
aI6
aI5
aI8
aI5
aI6
aI4
aI5
aI10
aI7
aI8
aI10
aI8
aI9
aI5
aI4
aI9
aI10
aI6
aI8
aI4
aI10
aI6
aI8
aI7
aI1
aI8
aI4
aI5
aI3
aI8
aI2
aI7
aI4
aI5
aI4
aI4
aI6
aI8
aI5
aI5
aI7
aI5
aI7
aI5
aI4
aI10
aI9
aI10
aI6
aI10
aI2
aI5
aI7
aI10
aI8
aI7
aI2
aI4
aI11
aI6
aI9
aI9
aI3
aI5
aI5
aI5
aI7
aI6
aI7
aI11
aI9
aI5
aI5
aI5
aI4
aI7
aI10
aI5
aI8
aI6
aI3
aI10
aI4
aI9
aI4
aI6
aI4
aI4
aI8
aI4
aI7
aI8
aI7
aI3
aI6
aI9
aI5
aI6
aI4
aI8
aI5
aI9
aI6
aI7
aI10
aI10
aI5
aI7
aI6
aI6
aI3
aI9
aI12
aI5
aI5
aI2
aI10
aI8
aI5
aI6
aI8
aI6
aI3
aI7
aI4
aI7
aI8
aI8
aI6
aI4
aI2
aI13
aI8
aI5
aI6
aI8
aI9
aI2
aI5
aI6
aI4
aI5
aI6
aI7
aI9
aI5
aI7
aI5
aI7
aI6
aI2
aI4
aI7
aI7
aI4
aI10
aI5
aI3
aI5
aI9
aI5
aI10
aI5
aI6
aI8
aI9
aI5
aI3
aI1
aI4
aI8
aI4
aI3
aI5
aI2
aI9
aI4
aI6
aI6
aI4
aI6
aI8
aI5
aI6
aI4
aI2
aI1
aI7
aI6
aI4
aI8
aI5
aI5
aI4
aI8
aI9
aI6
aI10
aI9
aI5
aI4
aI7
aI5
aI1
aI3
aI7
aI4
aI6
aI2
aI7
aI5
aI7
aI6
aI6
aI7
aI11
aI3
aI7
aI5
aI4
aI5
aI9
aI6
aI10
aI6
aI5
aI4
aI10
aI6
aI3
aI5
aI7
aI3
aI4
aI6
aI7
aI6
aI4
aI5
aI6
aI4
aI5
aI6
aI3
aI5
aI7
aI6
aI7
aI4
aI11
aI6
aI9
aI7
aI3
aI10
aI4
aI8
aI6
aI6
aI3
aI12
aI4
aI6
aI5
aI3
aI6
aI4
aI7
aI3
aI5
aI5
aI7
aI7
aI5
aI3
aI3
aI9
aI7
aI4
aI4
aI12
aI7
aI6
aI9
aI8
aI6
aI4
aI1
aI7
aI7
aI5
aI5
aI7
aI5
aI4
aI3
aI6
aI3
aI5
aI4
aasg10
(lp20
F0.004383288933288932
asg12
(lp21
I0
assS'clique_6'
p22
(dp23
g3
(lp24
F4.039737737737738
asg5
(lp25
F0.0011129795865492133
asg7
(lp26
(lp27
I10
aI6
aI1
aI6
aI4
aI7
aI6
aI7
aI3
aI7
aI6
aI5
aI5
aI5
aI7
aI7
aI5
aI7
aI7
aI5
aI7
aI3
aI4
aI5
aI8
aI7
aI13
aI6
aI5
aI2
aI7
aI5
aI6
aI5
aI10
aI7
aI6
aI4
aI9
aI6
aI10
aI3
aI9
aI4
aI2
aI4
aI7
aI3
aI6
aI9
aI6
aI8
aI8
aI6
aI6
aI4
aI7
aI4
aI7
aI9
aI6
aI10
aI6
aI10
aI6
aI8
aI12
aI9
aI7
aI5
aI7
aI4
aI9
aI7
aI6
aI5
aI7
aI8
aI7
aI6
aI6
aI7
aI14
aI5
aI10
aI11
aI5
aI8
aI6
aI5
aI6
aI6
aI3
aI4
aI8
aI5
aI4
aI6
aI8
aI10
aI6
aI3
aI6
aI14
aI9
aI8
aI8
aI5
aI3
aI7
aI7
aI7
aI7
aI5
aI6
aI4
aI8
aI4
aI4
aI5
aI2
aI6
aI7
aI6
aI5
aI11
aI3
aI5
aI2
aI5
aI4
aI4
aI5
aI6
aI9
aI7
aI3
aI7
aI3
aI5
aI2
aI10
aI5
aI6
aI4
aI8
aI5
aI11
aI2
aI3
aI6
aI4
aI2
aI10
aI4
aI9
aI9
aI7
aI10
aI7
aI11
aI7
aI9
aI8
aI11
aI8
aI8
aI8
aI5
aI2
aI3
aI7
aI6
aI4
aI9
aI3
aI7
aI6
aI7
aI7
aI3
aI8
aI8
aI10
aI3
aI4
aI4
aI7
aI6
aI9
aI6
aI5
aI7
aI7
aI6
aI4
aI4
aI5
aI5
aI5
aI6
aI3
aI9
aI11
aI4
aI4
aI3
aI5
aI3
aI5
aI2
aI5
aI3
aI7
aI6
aI7
aI7
aI4
aI8
aI1
aI6
aI3
aI5
aI7
aI2
aI6
aI7
aI4
aI8
aI6
aI5
aI3
aI5
aI3
aI5
aI11
aI9
aI9
aI6
aI7
aI6
aI6
aI7
aI7
aI6
aI4
aI8
aI9
aI6
aI9
aI2
aI6
aI5
aI9
aI8
aI11
aI6
aI3
aI9
aI9
aI5
aI13
aI6
aI2
aI7
aI7
aI4
aI3
aI4
aI4
aI10
aI5
aI7
aI9
aI12
aI4
aI9
aI2
aI3
aI7
aI7
aI10
aI3
aI8
aI4
aI4
aI1
aI7
aI5
aI7
aI5
aI10
aI6
aI5
aI10
aI3
aI6
aI6
aI7
aI8
aI4
aI2
aI5
aI7
aI3
aI4
aI4
aI2
aI5
aI5
aI8
aI8
aI3
aI5
aI5
aI14
aI8
aI5
aI3
aI5
aI12
aI5
aI7
aI10
aI4
aI6
aI2
aI5
aI4
aI11
aI15
aI4
aI6
aI5
aI4
aI8
aI5
aI5
aI6
aI4
aI6
aI6
aI4
aI1
aI5
aI4
aI3
aI5
aI3
aI2
aI7
aI5
aI7
aI8
aI6
aI8
aI5
aI2
aI5
aI9
aI11
aI3
aI10
aI6
aI7
aI4
aI6
aI4
aI6
aI5
aI9
aI2
aI7
aI6
aI8
aI10
aI2
aI6
aI4
aI5
aI6
aI5
aI9
aI7
aI2
aI10
aI5
aI12
aI5
aI5
aI7
aI8
aI6
aI6
aI11
aI5
aI3
aI6
aI7
aI6
aI2
aI5
aI10
aI4
aI8
aI7
aI9
aI4
aI8
aI2
aI4
aI7
aI6
aI11
aI4
aI6
aI9
aI7
aI6
aI4
aI9
aI2
aI8
aI6
aI7
aI9
aI7
aI4
aI5
aI5
aI9
aI4
aI3
aI11
aI9
aI5
aI4
aI8
aI6
aI5
aI5
aI6
aI4
aI7
aI6
aI3
aI8
aI7
aI7
aI5
aI5
aI10
aI8
aI10
aI6
aI6
aI6
aI10
aI4
aI4
aI5
aI5
aI5
aI6
aI9
aI3
aI8
aI8
aI10
aI6
aI7
aI10
aI3
aI3
aI5
aI4
aI7
aI6
aI5
aI8
aI3
aI6
aI7
aI3
aI5
aI4
aI4
aI6
aI6
aI7
aI7
aI4
aI8
aI5
aI7
aI12
aI6
aI8
aI4
aI4
aI1
aI6
aI4
aI4
aI9
aI5
aI4
aI8
aI5
aI5
aI11
aI5
aI5
aI7
aI4
aI6
aI12
aI3
aI10
aI7
aI9
aI4
aI8
aI7
aI11
aI6
aI5
aI7
aI5
aI6
aI7
aI6
aI5
aI4
aI6
aI4
aI6
aI5
aI3
aI6
aI7
aI8
aI11
aI7
aI1
aI6
aI9
aI6
aI4
aI7
aI3
aI3
aI3
aI10
aI2
aI4
aI5
aI8
aI4
aI6
aI3
aI8
aI7
aI5
aI5
aI4
aI7
aI10
aI4
aI11
aI7
aI4
aI4
aI4
aI7
aI5
aI4
aI2
aI10
aI4
aI3
aI2
aI7
aI6
aI6
aI8
aI8
aI8
aI4
aI5
aI12
aI4
aI2
aI9
aI1
aI7
aI10
aI4
aI4
aI8
aI3
aI10
aI8
aI5
aI13
aI3
aI9
aI5
aI5
aI6
aI14
aI9
aI6
aI4
aI6
aI7
aI2
aI3
aI6
aI8
aI5
aI4
aI12
aI8
aI3
aI7
aI9
aI10
aI6
aI5
aI10
aI1
aI9
aI10
aI8
aI4
aI2
aI6
aI5
aI3
aI5
aI7
aI2
aI6
aI6
aI5
aI9
aI5
aI8
aI6
aI5
aI7
aI13
aI7
aI8
aI3
aI6
aI4
aI3
aI4
aI3
aI7
aI5
aI8
aI4
aI3
aI6
aI5
aI9
aI6
aI9
aI5
aI6
aI9
aI6
aI5
aI5
aI8
aI6
aI2
aI6
aI6
aI7
aI7
aI4
aI6
aI7
aI9
aI8
aI5
aI8
aI4
aI9
aI5
aI9
aI4
aI7
aI3
aI4
aI6
aI6
aI5
aI8
aI5
aI7
aI4
aI4
aI10
aI7
aI8
aI10
aI8
aI9
aI5
aI4
aI9
aI10
aI6
aI8
aI4
aI10
aI6
aI8
aI7
aI1
aI8
aI4
aI5
aI3
aI8
aI2
aI7
aI4
aI5
aI4
aI4
aI6
aI8
aI5
aI5
aI7
aI5
aI7
aI5
aI4
aI10
aI9
aI10
aI6
aI10
aI2
aI5
aI7
aI10
aI8
aI7
aI2
aI4
aI11
aI6
aI9
aI9
aI3
aI5
aI5
aI5
aI7
aI6
aI7
aI11
aI9
aI5
aI5
aI5
aI4
aI7
aI10
aI5
aI8
aI6
aI3
aI10
aI4
aI9
aI4
aI6
aI4
aI4
aI8
aI4
aI7
aI8
aI7
aI3
aI6
aI8
aI5
aI6
aI4
aI8
aI5
aI9
aI6
aI7
aI10
aI10
aI5
aI7
aI6
aI6
aI3
aI9
aI12
aI5
aI5
aI2
aI10
aI8
aI5
aI6
aI8
aI6
aI3
aI7
aI4
aI7
aI8
aI8
aI6
aI4
aI2
aI13
aI8
aI5
aI6
aI8
aI9
aI2
aI5
aI6
aI4
aI5
aI6
aI7
aI9
aI5
aI7
aI5
aI7
aI6
aI2
aI4
aI7
aI7
aI4
aI10
aI5
aI3
aI5
aI9
aI5
aI10
aI5
aI6
aI8
aI9
aI5
aI3
aI1
aI4
aI8
aI4
aI3
aI5
aI2
aI9
aI4
aI6
aI6
aI4
aI6
aI8
aI5
aI6
aI4
aI2
aI1
aI7
aI6
aI4
aI7
aI5
aI5
aI4
aI7
aI9
aI6
aI10
aI9
aI5
aI4
aI7
aI5
aI1
aI3
aI7
aI4
aI6
aI2
aI7
aI5
aI7
aI6
aI6
aI7
aI11
aI3
aI7
aI5
aI4
aI5
aI9
aI6
aI10
aI6
aI5
aI4
aI10
aI6
aI3
aI5
aI7
aI3
aI4
aI6
aI7
aI6
aI4
aI5
aI6
aI4
aI5
aI6
aI3
aI5
aI7
aI6
aI7
aI4
aI11
aI6
aI9
aI7
aI3
aI10
aI4
aI8
aI6
aI6
aI3
aI12
aI4
aI6
aI5
aI3
aI6
aI4
aI7
aI3
aI5
aI5
aI7
aI7
aI5
aI3
aI3
aI9
aI7
aI4
aI4
aI12
aI7
aI6
aI9
aI8
aI6
aI4
aI1
aI7
aI7
aI5
aI5
aI7
aI5
aI4
aI3
aI6
aI3
aI5
aI4
aasg10
(lp28
F0.004470707070707068
asg12
(lp29
I0
assS'square'
p30
(dp31
g3
(lp32
F4.04163963963964
asg5
(lp33
F0.0012345277063577672
asg7
(lp34
(lp35
I10
aI6
aI1
aI6
aI4
aI7
aI6
aI7
aI3
aI7
aI6
aI5
aI5
aI5
aI7
aI7
aI5
aI7
aI7
aI6
aI7
aI3
aI4
aI5
aI8
aI7
aI13
aI6
aI5
aI2
aI7
aI5
aI6
aI5
aI10
aI7
aI6
aI4
aI9
aI6
aI9
aI3
aI9
aI4
aI2
aI4
aI5
aI3
aI6
aI9
aI6
aI8
aI8
aI6
aI6
aI4
aI7
aI4
aI7
aI9
aI6
aI10
aI6
aI10
aI6
aI8
aI12
aI9
aI7
aI5
aI7
aI4
aI9
aI7
aI6
aI5
aI7
aI8
aI7
aI6
aI6
aI7
aI14
aI4
aI10
aI11
aI5
aI10
aI6
aI5
aI6
aI6
aI3
aI4
aI8
aI5
aI4
aI6
aI8
aI10
aI6
aI3
aI6
aI14
aI10
aI8
aI8
aI5
aI3
aI7
aI7
aI7
aI7
aI5
aI6
aI4
aI8
aI4
aI4
aI5
aI2
aI6
aI7
aI6
aI5
aI11
aI3
aI5
aI2
aI5
aI4
aI4
aI5
aI6
aI9
aI7
aI3
aI7
aI3
aI5
aI2
aI10
aI5
aI6
aI4
aI8
aI5
aI11
aI2
aI3
aI6
aI4
aI2
aI10
aI4
aI9
aI9
aI7
aI10
aI5
aI11
aI7
aI9
aI8
aI11
aI8
aI8
aI8
aI5
aI2
aI3
aI7
aI6
aI4
aI9
aI3
aI7
aI6
aI7
aI7
aI3
aI8
aI8
aI10
aI3
aI4
aI4
aI7
aI6
aI9
aI6
aI5
aI7
aI7
aI6
aI4
aI4
aI5
aI5
aI5
aI6
aI3
aI9
aI11
aI4
aI4
aI3
aI5
aI3
aI5
aI2
aI5
aI3
aI7
aI6
aI7
aI7
aI4
aI8
aI1
aI6
aI3
aI5
aI7
aI2
aI6
aI7
aI4
aI8
aI6
aI5
aI3
aI5
aI3
aI5
aI11
aI9
aI9
aI6
aI7
aI6
aI6
aI7
aI7
aI6
aI4
aI6
aI9
aI6
aI9
aI2
aI6
aI5
aI9
aI8
aI11
aI6
aI3
aI9
aI9
aI5
aI13
aI6
aI2
aI7
aI7
aI4
aI3
aI4
aI4
aI10
aI5
aI7
aI9
aI12
aI4
aI9
aI2
aI3
aI6
aI7
aI10
aI3
aI8
aI4
aI4
aI1
aI7
aI5
aI7
aI5
aI10
aI6
aI5
aI10
aI3
aI6
aI6
aI7
aI8
aI4
aI2
aI5
aI7
aI3
aI4
aI4
aI2
aI5
aI5
aI8
aI8
aI3
aI5
aI5
aI14
aI8
aI5
aI3
aI5
aI12
aI5
aI7
aI10
aI4
aI6
aI2
aI5
aI4
aI11
aI15
aI4
aI6
aI5
aI4
aI7
aI5
aI5
aI6
aI4
aI6
aI6
aI4
aI1
aI5
aI4
aI3
aI5
aI3
aI2
aI7
aI5
aI7
aI8
aI6
aI8
aI5
aI2
aI5
aI9
aI11
aI3
aI10
aI6
aI7
aI4
aI6
aI4
aI6
aI5
aI9
aI2
aI7
aI6
aI7
aI10
aI2
aI6
aI4
aI5
aI6
aI5
aI9
aI7
aI2
aI10
aI5
aI12
aI5
aI5
aI7
aI7
aI6
aI6
aI11
aI5
aI3
aI6
aI7
aI7
aI2
aI5
aI9
aI4
aI8
aI7
aI9
aI4
aI8
aI2
aI4
aI6
aI6
aI11
aI4
aI6
aI9
aI7
aI6
aI4
aI9
aI2
aI8
aI7
aI7
aI8
aI7
aI4
aI5
aI5
aI9
aI4
aI3
aI11
aI9
aI5
aI4
aI9
aI6
aI5
aI5
aI6
aI4
aI7
aI6
aI3
aI8
aI6
aI7
aI5
aI5
aI10
aI8
aI10
aI6
aI6
aI6
aI10
aI4
aI4
aI5
aI5
aI5
aI6
aI9
aI3
aI8
aI8
aI10
aI6
aI7
aI10
aI3
aI3
aI5
aI4
aI7
aI6
aI5
aI8
aI3
aI6
aI7
aI3
aI5
aI4
aI4
aI6
aI6
aI7
aI7
aI4
aI8
aI5
aI7
aI12
aI6
aI8
aI4
aI4
aI1
aI6
aI4
aI4
aI10
aI5
aI4
aI8
aI7
aI5
aI11
aI5
aI5
aI7
aI4
aI6
aI13
aI3
aI10
aI7
aI9
aI4
aI8
aI7
aI11
aI6
aI5
aI7
aI5
aI6
aI7
aI6
aI5
aI4
aI6
aI4
aI6
aI5
aI3
aI6
aI7
aI8
aI11
aI7
aI1
aI6
aI9
aI6
aI4
aI7
aI3
aI3
aI3
aI10
aI2
aI4
aI5
aI8
aI4
aI6
aI3
aI8
aI7
aI5
aI5
aI4
aI7
aI10
aI4
aI11
aI7
aI4
aI4
aI4
aI8
aI5
aI4
aI2
aI10
aI4
aI3
aI2
aI7
aI6
aI6
aI8
aI8
aI8
aI4
aI5
aI12
aI4
aI2
aI9
aI1
aI7
aI10
aI4
aI4
aI8
aI3
aI10
aI8
aI5
aI13
aI3
aI9
aI5
aI5
aI6
aI14
aI9
aI6
aI4
aI6
aI7
aI2
aI3
aI6
aI8
aI5
aI4
aI12
aI8
aI3
aI7
aI9
aI10
aI5
aI5
aI10
aI1
aI9
aI10
aI8
aI4
aI2
aI6
aI5
aI3
aI5
aI7
aI2
aI6
aI6
aI5
aI9
aI5
aI8
aI6
aI5
aI7
aI13
aI7
aI8
aI3
aI6
aI4
aI3
aI4
aI3
aI7
aI5
aI8
aI4
aI3
aI6
aI5
aI9
aI6
aI9
aI5
aI6
aI9
aI6
aI5
aI5
aI8
aI6
aI2
aI6
aI6
aI7
aI7
aI4
aI6
aI7
aI9
aI8
aI5
aI8
aI4
aI9
aI5
aI9
aI4
aI7
aI3
aI4
aI6
aI6
aI5
aI8
aI5
aI6
aI4
aI5
aI10
aI7
aI8
aI10
aI8
aI9
aI5
aI4
aI9
aI10
aI6
aI8
aI4
aI10
aI6
aI8
aI7
aI1
aI8
aI4
aI5
aI3
aI8
aI2
aI7
aI4
aI5
aI4
aI4
aI6
aI8
aI5
aI5
aI7
aI5
aI7
aI5
aI4
aI10
aI9
aI10
aI6
aI10
aI2
aI5
aI7
aI10
aI8
aI7
aI2
aI4
aI11
aI6
aI9
aI9
aI3
aI5
aI5
aI5
aI7
aI6
aI7
aI10
aI9
aI5
aI5
aI5
aI4
aI7
aI10
aI5
aI8
aI6
aI3
aI10
aI4
aI9
aI4
aI6
aI4
aI4
aI8
aI4
aI7
aI8
aI7
aI3
aI6
aI9
aI5
aI6
aI4
aI8
aI5
aI9
aI6
aI7
aI10
aI10
aI5
aI7
aI6
aI6
aI3
aI9
aI12
aI5
aI5
aI2
aI10
aI8
aI5
aI6
aI8
aI6
aI3
aI7
aI4
aI7
aI8
aI8
aI6
aI4
aI2
aI13
aI8
aI5
aI6
aI8
aI9
aI2
aI5
aI6
aI4
aI5
aI6
aI7
aI9
aI5
aI7
aI5
aI7
aI6
aI2
aI4
aI7
aI7
aI4
aI10
aI5
aI3
aI5
aI9
aI5
aI10
aI5
aI6
aI8
aI9
aI5
aI3
aI1
aI4
aI8
aI4
aI3
aI5
aI2
aI9
aI4
aI6
aI6
aI4
aI6
aI8
aI5
aI6
aI4
aI2
aI1
aI7
aI6
aI4
aI8
aI5
aI5
aI4
aI8
aI9
aI6
aI10
aI9
aI5
aI4
aI7
aI5
aI1
aI3
aI7
aI4
aI6
aI2
aI7
aI5
aI7
aI6
aI6
aI7
aI11
aI3
aI7
aI5
aI4
aI5
aI9
aI6
aI10
aI6
aI5
aI4
aI10
aI6
aI3
aI5
aI7
aI3
aI4
aI6
aI7
aI6
aI4
aI5
aI6
aI4
aI5
aI6
aI3
aI5
aI7
aI6
aI7
aI4
aI11
aI6
aI9
aI7
aI3
aI10
aI4
aI8
aI6
aI6
aI3
aI12
aI4
aI6
aI5
aI3
aI6
aI4
aI7
aI3
aI5
aI5
aI7
aI7
aI5
aI3
aI3
aI9
aI6
aI4
aI4
aI12
aI7
aI6
aI9
aI8
aI6
aI4
aI1
aI7
aI7
aI5
aI5
aI7
aI5
aI4
aI3
aI6
aI3
aI5
aI4
aasg10
(lp36
F0.006608419358419348
asg12
(lp37
I0
assS'triangle'
p38
(dp39
g3
(lp40
F4.049017017017017
asg5
(lp41
F0.0009148174696850434
asg7
(lp42
(lp43
I10
aI6
aI1
aI6
aI4
aI6
aI6
aI7
aI3
aI7
aI6
aI5
aI5
aI5
aI7
aI7
aI5
aI7
aI7
aI6
aI6
aI3
aI4
aI5
aI8
aI7
aI13
aI6
aI5
aI2
aI7
aI5
aI6
aI5
aI10
aI7
aI6
aI4
aI8
aI6
aI10
aI3
aI9
aI4
aI2
aI4
aI7
aI3
aI6
aI9
aI6
aI8
aI8
aI6
aI6
aI4
aI7
aI4
aI7
aI9
aI6
aI10
aI6
aI10
aI6
aI8
aI12
aI9
aI7
aI5
aI7
aI4
aI9
aI7
aI6
aI5
aI7
aI8
aI7
aI6
aI6
aI7
aI13
aI5
aI10
aI11
aI5
aI10
aI6
aI5
aI6
aI6
aI3
aI4
aI8
aI5
aI4
aI6
aI8
aI10
aI6
aI3
aI6
aI14
aI10
aI8
aI8
aI5
aI3
aI7
aI7
aI7
aI7
aI5
aI6
aI4
aI8
aI4
aI4
aI5
aI2
aI6
aI7
aI6
aI5
aI10
aI3
aI5
aI2
aI5
aI4
aI4
aI5
aI6
aI9
aI7
aI3
aI7
aI3
aI5
aI2
aI10
aI5
aI4
aI4
aI8
aI5
aI11
aI2
aI3
aI6
aI4
aI2
aI10
aI4
aI9
aI9
aI7
aI10
aI7
aI11
aI7
aI9
aI8
aI11
aI8
aI8
aI8
aI5
aI2
aI3
aI7
aI6
aI4
aI9
aI3
aI7
aI6
aI7
aI7
aI3
aI8
aI8
aI10
aI3
aI4
aI4
aI7
aI6
aI9
aI6
aI5
aI7
aI7
aI6
aI4
aI4
aI5
aI5
aI5
aI6
aI3
aI9
aI11
aI4
aI4
aI3
aI5
aI3
aI5
aI2
aI5
aI3
aI7
aI6
aI7
aI7
aI4
aI8
aI1
aI6
aI3
aI5
aI7
aI2
aI6
aI7
aI4
aI8
aI6
aI5
aI3
aI5
aI3
aI5
aI11
aI9
aI9
aI6
aI7
aI6
aI6
aI7
aI7
aI5
aI4
aI8
aI9
aI6
aI9
aI2
aI6
aI5
aI9
aI8
aI11
aI6
aI3
aI9
aI9
aI5
aI13
aI6
aI2
aI7
aI6
aI4
aI3
aI4
aI4
aI10
aI5
aI7
aI9
aI12
aI4
aI9
aI2
aI3
aI7
aI7
aI10
aI3
aI8
aI4
aI4
aI1
aI7
aI5
aI7
aI5
aI10
aI6
aI5
aI10
aI3
aI6
aI6
aI7
aI8
aI4
aI2
aI5
aI7
aI3
aI4
aI4
aI2
aI5
aI5
aI8
aI8
aI3
aI5
aI5
aI14
aI8
aI5
aI3
aI5
aI12
aI5
aI7
aI10
aI4
aI6
aI2
aI5
aI4
aI11
aI15
aI4
aI6
aI5
aI4
aI8
aI5
aI5
aI6
aI4
aI6
aI6
aI4
aI1
aI5
aI4
aI3
aI5
aI3
aI2
aI7
aI5
aI7
aI8
aI6
aI8
aI5
aI2
aI5
aI9
aI11
aI3
aI10
aI6
aI7
aI4
aI6
aI4
aI6
aI5
aI9
aI2
aI7
aI6
aI8
aI10
aI2
aI6
aI4
aI5
aI6
aI5
aI9
aI7
aI2
aI10
aI5
aI12
aI5
aI5
aI7
aI8
aI6
aI6
aI11
aI5
aI3
aI6
aI7
aI7
aI2
aI5
aI10
aI4
aI8
aI7
aI9
aI4
aI8
aI2
aI4
aI7
aI6
aI11
aI4
aI6
aI9
aI7
aI6
aI4
aI8
aI2
aI8
aI7
aI7
aI9
aI7
aI4
aI5
aI5
aI9
aI4
aI3
aI11
aI9
aI5
aI4
aI9
aI6
aI5
aI5
aI6
aI4
aI7
aI6
aI3
aI8
aI7
aI7
aI5
aI5
aI10
aI8
aI10
aI6
aI6
aI6
aI10
aI4
aI4
aI5
aI5
aI5
aI6
aI9
aI3
aI8
aI8
aI10
aI6
aI7
aI10
aI3
aI3
aI5
aI4
aI7
aI6
aI5
aI8
aI3
aI6
aI7
aI3
aI5
aI4
aI4
aI6
aI6
aI7
aI7
aI4
aI8
aI5
aI7
aI12
aI6
aI8
aI4
aI4
aI1
aI6
aI4
aI4
aI10
aI5
aI4
aI8
aI7
aI5
aI11
aI5
aI5
aI7
aI4
aI6
aI13
aI3
aI10
aI7
aI9
aI4
aI8
aI7
aI11
aI6
aI5
aI7
aI5
aI6
aI7
aI6
aI4
aI4
aI6
aI4
aI6
aI5
aI3
aI6
aI7
aI8
aI11
aI7
aI1
aI6
aI8
aI6
aI4
aI7
aI3
aI3
aI3
aI10
aI2
aI4
aI5
aI8
aI4
aI6
aI3
aI8
aI7
aI5
aI5
aI4
aI7
aI10
aI4
aI11
aI7
aI4
aI4
aI4
aI8
aI5
aI4
aI2
aI10
aI4
aI3
aI2
aI7
aI6
aI6
aI8
aI8
aI8
aI4
aI5
aI12
aI4
aI2
aI9
aI1
aI7
aI10
aI4
aI4
aI8
aI3
aI10
aI8
aI5
aI13
aI3
aI9
aI5
aI4
aI6
aI14
aI9
aI6
aI4
aI6
aI7
aI2
aI3
aI6
aI8
aI5
aI4
aI12
aI8
aI3
aI7
aI9
aI10
aI6
aI5
aI10
aI1
aI9
aI10
aI8
aI4
aI2
aI5
aI5
aI3
aI5
aI7
aI2
aI6
aI6
aI5
aI9
aI5
aI8
aI6
aI4
aI7
aI13
aI7
aI8
aI3
aI6
aI4
aI3
aI4
aI3
aI7
aI5
aI8
aI4
aI3
aI6
aI5
aI8
aI6
aI9
aI5
aI6
aI9
aI6
aI5
aI5
aI8
aI6
aI2
aI6
aI6
aI7
aI7
aI4
aI6
aI7
aI9
aI8
aI5
aI8
aI4
aI8
aI5
aI9
aI4
aI7
aI3
aI4
aI6
aI6
aI5
aI8
aI5
aI7
aI4
aI5
aI10
aI7
aI8
aI10
aI8
aI9
aI5
aI4
aI9
aI10
aI6
aI8
aI4
aI10
aI6
aI8
aI7
aI1
aI8
aI4
aI5
aI3
aI7
aI2
aI7
aI4
aI5
aI4
aI4
aI6
aI8
aI5
aI5
aI7
aI5
aI7
aI5
aI4
aI10
aI9
aI10
aI6
aI10
aI2
aI5
aI7
aI10
aI8
aI7
aI2
aI4
aI11
aI6
aI9
aI9
aI3
aI5
aI5
aI5
aI7
aI6
aI7
aI11
aI9
aI5
aI5
aI5
aI4
aI7
aI10
aI5
aI8
aI6
aI3
aI10
aI4
aI9
aI4
aI6
aI4
aI4
aI8
aI4
aI7
aI8
aI7
aI3
aI6
aI9
aI5
aI6
aI4
aI8
aI5
aI9
aI6
aI7
aI10
aI10
aI5
aI7
aI6
aI6
aI3
aI9
aI12
aI5
aI5
aI2
aI10
aI8
aI5
aI6
aI8
aI6
aI3
aI7
aI3
aI7
aI8
aI8
aI6
aI4
aI2
aI13
aI8
aI5
aI6
aI8
aI9
aI2
aI5
aI6
aI4
aI4
aI6
aI7
aI9
aI5
aI7
aI5
aI7
aI6
aI2
aI4
aI7
aI7
aI4
aI9
aI5
aI3
aI5
aI9
aI5
aI10
aI5
aI6
aI8
aI9
aI5
aI3
aI1
aI4
aI8
aI4
aI3
aI5
aI2
aI9
aI4
aI6
aI6
aI4
aI6
aI8
aI5
aI6
aI4
aI2
aI1
aI7
aI6
aI4
aI8
aI5
aI5
aI4
aI8
aI9
aI6
aI10
aI9
aI5
aI4
aI7
aI5
aI1
aI3
aI7
aI4
aI6
aI2
aI7
aI5
aI7
aI6
aI6
aI7
aI11
aI3
aI7
aI5
aI4
aI5
aI9
aI6
aI10
aI6
aI5
aI4
aI10
aI6
aI3
aI5
aI7
aI3
aI4
aI6
aI7
aI6
aI4
aI5
aI6
aI4
aI5
aI6
aI3
aI5
aI7
aI6
aI7
aI4
aI11
aI6
aI9
aI7
aI3
aI10
aI3
aI8
aI6
aI6
aI3
aI12
aI4
aI6
aI5
aI3
aI6
aI4
aI7
aI3
aI5
aI5
aI7
aI7
aI5
aI3
aI3
aI9
aI7
aI4
aI4
aI12
aI7
aI6
aI9
aI8
aI6
aI4
aI1
aI7
aI7
aI5
aI5
aI7
aI5
aI4
aI3
aI6
aI3
aI5
aI4
aasg10
(lp44
F0.005443656343656338
asg12
(lp45
I0
ass.