(dp0
S'average_shortest_patlen'
p1
(lp2
F4.074059598547743
aF4.064938067528115
aF4.073786683461129
aF4.071663227834199
aF4.073595052025713
aF4.076333081195452
aF4.079449637472683
aF4.0845872531155525
aF4.084220509397909
aF4.085025255479817
aF4.088270895719088
aF4.090124026348494
aF4.093474741519851
aF4.097506560713552
aF4.098877200446942
aF4.098489073913927
aF4.103734872723831
aF4.1019572439099585
aF4.101835044054814
aF4.104889542631075
aF4.108834951008318
aF4.113395986359281
aF4.114051417737979
aF4.119562665527058
aF4.119704467124958
aF4.118747906439835
aF4.126522308466524
aF4.128963287733415
aF4.134434508139775
aF4.131454437398063
aF4.131796029393131
aF4.138071778332141
aF4.137607443579161
aF4.145629899619036
aF4.140124620731589
aF4.149801139216096
aF4.152183359013239
aF4.1528929857680845
aF4.157627277995399
aF4.159590838159525
aF4.163771377647175
aF4.163285638940971
aF4.1666152383407935
aF4.169922355801541
aF4.174098826543082
aF4.176004328251365
aF4.171707350645427
aF4.175840246470708
aF4.185370692259488
aF4.183346457813269
aF4.190633584867778
asS'square_clustering'
p3
(lp4
F0.0010546266079849603
aF0.0012734701631303077
aF0.001555150910336814
aF0.0016929932439747142
aF0.0018818234342224743
aF0.0021255222359795535
aF0.0022979860988921164
aF0.0025369673822015796
aF0.002783611391298481
aF0.0030419381794381554
aF0.0031392962047068085
aF0.003253234383470188
aF0.0036369030381248517
aF0.0037451380022756175
aF0.003962837789504231
aF0.00441220556713032
aF0.004340085775324894
aF0.004677489789365411
aF0.0047724545185216525
aF0.005041726422744474
aF0.005199686057996604
aF0.005494160593619569
aF0.005587389433684726
aF0.00582176609938936
aF0.0058597897080365806
aF0.006288700475494744
aF0.006743110802776325
aF0.006742194784851716
aF0.007366361402144632
aF0.007602571994219531
aF0.007525740755564484
aF0.007676742190594519
aF0.008011088334331857
aF0.007849808209607905
aF0.008248996372753652
aF0.008693953369623362
aF0.00885626285484611
aF0.009133236858316556
aF0.009018943179263814
aF0.009448568037457394
aF0.009693725626431173
aF0.009663293716582883
aF0.010117472431227941
aF0.010199554351218013
aF0.010487297455820761
aF0.010708630719195748
aF0.010861422630627853
aF0.011322330448960426
aF0.011451110866221572
aF0.011783753902974618
aF0.012256597557946851
asS'triangular_clustering'
p5
(lp6
F0.005992337044104838
aF0.005966082022982175
aF0.006087903134876814
aF0.00608922511724601
aF0.005794985062323291
aF0.006027693234869704
aF0.005978013018027717
aF0.005864855238328914
aF0.005936227213962503
aF0.005772553518377044
aF0.00599489566479272
aF0.0057284476144770224
aF0.005832329003555777
aF0.005955862641056908
aF0.005947600179232526
aF0.005957887778887775
aF0.0059480663046104195
aF0.005723777141589057
aF0.005870734220028334
aF0.006049565861812762
aF0.006321496581849516
aF0.005878883398936802
aF0.005995027834910182
aF0.005664501610704396
aF0.006072543347605264
aF0.006017571966389302
aF0.006215116031457357
aF0.006011358610343898
aF0.005868059003088411
aF0.006047207384119144
aF0.006196865485821364
aF0.006093419858005764
aF0.0058655096945538065
aF0.006084202728300247
aF0.006071030297016362
aF0.005974620722844404
aF0.0058718515308221145
aF0.005884835365614771
aF0.0061225807346248495
aF0.005659960031798262
aF0.005728885023473257
aF0.0060157575675957985
aF0.006126342322709966
aF0.005992613054042617
aF0.005771921416045254
aF0.005900919535916437
aF0.005922497150338476
aF0.005971365454720713
aF0.005971520559076285
aF0.006152029695278913
aF0.005995791949450613
asS'number_of_cliques'
p7
(lp8
F0.0
aF0.0
aF0.0
aF0.0
aF0.0
aF0.0
aF0.01
aF0.01
aF0.0
aF0.0
aF0.0
aF0.0
aF0.0
aF0.0
aF0.01
aF0.01
aF0.0
aF0.0
aF0.01
aF0.0
aF0.01
aF0.0
aF0.0
aF0.02
aF0.0
aF0.01
aF0.0
aF0.01
aF0.0
aF0.0
aF0.0
aF0.02
aF0.0
aF0.02
aF0.0
aF0.02
aF0.0
aF0.04
aF0.01
aF0.01
aF0.02
aF0.0
aF0.01
aF0.0
aF0.01
aF0.0
aF0.02
aF0.01
aF0.0
aF0.0
aF0.01
as.