(dp0
S'average_shortest_patlen'
p1
(lp2
F4.0666485012513265
aF4.072888485624819
aF4.082289383628125
aF4.084495067544534
aF4.092231530646632
aF4.104805968444933
aF4.111387736122162
aF4.11657803681966
aF4.1239760591291
aF4.128721900631734
aF4.135236287681724
aF4.142229610538653
aF4.1510246199586
aF4.161713304086816
aF4.164833188499763
aF4.1774665824963835
aF4.19292831694426
aF4.200569335690668
aF4.205312397555272
aF4.20896216502878
aF4.219369594740759
aF4.23073077362245
aF4.234382335340404
aF4.247054191726737
aF4.250972756696879
aF4.266065856808389
aF4.278639001512748
aF4.280502540026354
aF4.292531819550728
aF4.305367020456356
aF4.320053907217216
aF4.317887842606642
aF4.331116934198739
aF4.349510234517322
aF4.360620194737887
aF4.36988511984668
aF4.374143223269663
aF4.390697172065845
aF4.405399600752457
aF4.421970433946777
aF4.433359135637245
aF4.446824954113208
aF4.456041713848765
aF4.483916012424651
aF4.484477580869563
aF4.5052395390067765
aF4.515276794891235
aF4.539923210538364
aF4.551267073332489
aF4.563720198911333
aF4.594936137243134
asS'square_clustering'
p3
(lp4
F0.0010383635907975463
aF0.0014093104372373032
aF0.0017329203687246738
aF0.00222896941026217
aF0.002484973526168688
aF0.002975956062270514
aF0.0032987035437888864
aF0.003591296049638696
aF0.004043241779500326
aF0.004321702868184684
aF0.004872649724667983
aF0.004986807699080486
aF0.005525228398277309
aF0.006073122683623508
aF0.006286877876731703
aF0.006597212553346551
aF0.007347517992597745
aF0.0077818211693495365
aF0.008152888135877237
aF0.008258188077512642
aF0.008485280039483588
aF0.008900093660154242
aF0.009423770967084591
aF0.01006791879378993
aF0.01019850179350834
aF0.010567982833663163
aF0.010976924179297172
aF0.011408398908852773
aF0.011903771100798363
aF0.012067121412479249
aF0.012581786257343628
aF0.012786497104334884
aF0.013284945973975554
aF0.013996202115637821
aF0.014131808082485917
aF0.014773678977785462
aF0.014845473697206825
aF0.015566841625349137
aF0.016094228713624172
aF0.0164368184550901
aF0.01688712583172219
aF0.01690649156028508
aF0.017338738716173953
aF0.018089172109253995
aF0.018319642120270166
aF0.018894830538531006
aF0.01963058348774454
aF0.019826792433663646
aF0.020257310062545896
aF0.020648504532090176
aF0.02152830274073199
asS'triangular_clustering'
p5
(lp6
F0.00574731547374194
aF0.01299754410622058
aF0.0204936546588423
aF0.028113768417513004
aF0.03497142825638416
aF0.0422636482863542
aF0.04921781799091866
aF0.05635448357206958
aF0.06393520646879793
aF0.07073008869398584
aF0.07843338894395949
aF0.08489335871627522
aF0.0921190593556771
aF0.10005650721277354
aF0.10687915824182703
aF0.11345059259316541
aF0.12109678745437576
aF0.12917164133905312
aF0.13663107461363894
aF0.1424593088138212
aF0.14944218434506673
aF0.15692663488850334
aF0.16346156660333133
aF0.17233476845058962
aF0.17862930464951293
aF0.18732640657115499
aF0.19338124055072906
aF0.20107466149373512
aF0.20756641085548455
aF0.21385285446579563
aF0.22228259588450772
aF0.22961669218062664
aF0.23637709754271102
aF0.2439186825714707
aF0.2514262085039147
aF0.2577064777859742
aF0.2645004514259393
aF0.2733554321115765
aF0.2797704180619863
aF0.2880649696920729
aF0.2941815248470142
aF0.30028732189868984
aF0.3069867909578383
aF0.3151859064049989
aF0.32124288370856896
aF0.3304811180237035
aF0.336836958675999
aF0.34284039103217057
aF0.35120400148217806
aF0.3573033199492287
aF0.3658105412740854
asS'number_of_cliques'
p7
(lp8
F0.0
aF8.58
aF16.91
aF25.58
aF33.3
aF41.71
aF49.85
aF58.74
aF66.55
aF75.15
aF83.73
aF91.48
aF100.19
aF109.27
aF117.48
aF125.43
aF132.49
aF141.71
aF149.9
aF157.87
aF166.61
aF173.81
aF182.9
aF191.88
aF199.85
aF209.09
aF215.61
aF224.88
aF232.78
aF241.01
aF248.98
aF258.9
aF266.76
aF274.07
aF282.57
aF290.91
aF300.45
aF308.69
aF316.0
aF324.52
aF333.23
aF339.84
aF349.44
aF356.33
aF365.37
aF374.35
aF383.03
aF389.56
aF399.42
aF408.99
aF415.46
as.